(lp0
(dp1
VexonEnds
p2
S'2426037,2430629,2478622,2479804,'
p3
sVname
p4
S'uc057bmo.1'
p5
sVtxStart
p6
I2425979
sVexonCount
p7
I4
sVgname
p8
S'PLCH2'
p9
sVcdsEnd
p10
I2479804
sValignID
p11
S'ENST00000609981.4'
p12
sVstrand
p13
S'+'
p14
sVproteinID
p15
S'V9GY64'
p16
sVcdsStart
p17
I2430514
sVchrom
p18
S'chr1'
p19
sVtxEnd
p20
I2479804
sVexonStarts
p21
S'2425979,2430337,2478475,2479733,'
p22
sa.