(lp0
(dp1
VexonEnds
p2
S'20119,20585,84370,85692,89020,102303,107500,116173,119704,150765,152599,'
p3
sVname
p4
S'uc064xok.1'
p5
sVtxStart
p6
I19468
sVexonCount
p7
I11
sVgname
p8
S'MAMDC2'
p9
sVcdsEnd
p10
I152599
sValignID
p11
S'ENST00000617216.1'
p12
sVstrand
p13
S'+'
p14
sVproteinID
p15
S''
p16
sVcdsStart
p17
I20085
sVchrom
p18
S'chr9_GL383541v1_alt'
p19
sVtxEnd
p20
I152599
sVexonStarts
p21
S'19468,20471,84098,85607,88882,102046,107406,116032,119438,150671,152446,'
p22
sa(dp23
g2
S'130115,133617,153092,157800,'
p24
sg4
S'uc033dlz.2'
p25
sg6
I129007
sg7
I4
sg8
S'RP11-195E11.3'
p26
sg10
I129007
sg11
S'ENST00000611857.1'
p27
sg13
S'-'
p28
sg15
g16
sg17
I129007
sg18
S'chr9_GL383541v1_alt'
p29
sg20
I157800
sg21
S'129007,133386,153005,157722,'
p30
sa.