(lp0
(dp1
VexonEnds
p2
S'147638878,147639306,147903721,147977989,148118288,148147709,148172478,148217524,148229779,148267126,148383888,148409471,148415779,'
p3
sVname
p4
S'uc064iys.1'
p5
sVtxStart
p6
I147638808
sVexonCount
p7
I13
sVgname
p8
S'CNTNAP2'
p9
sVcdsEnd
p10
I147638808
sValignID
p11
S'ENST00000627772.1'
p12
sVstrand
p13
S'+'
p14
sVproteinID
p15
S''
p16
sVcdsStart
p17
I147638808
sVchrom
p18
S'chr7'
p19
sVtxEnd
p20
I148415779
sVexonStarts
p21
S'147638808,147639105,147903564,147977861,148118117,148147490,148172241,148217287,148229645,148267032,148383648,148409390,148415416,'
p22
sa(dp23
g2
S'148133861,148147709,148172478,148217524,148229779,148267126,148383888,148409471,148415940,'
p24
sg4
S'uc064iyx.1'
p25
sg6
I148133683
sg7
I9
sg8
S'CNTNAP2'
p26
sg10
I148415616
sg11
S'ENST00000628930.1'
p27
sg13
g14
sg15
S'B7Z1Y6'
p28
sg17
I148172291
sg18
S'chr7'
p29
sg20
I148415940
sg21
S'148133683,148147490,148172241,148217287,148229645,148267032,148383648,148409390,148415416,'
p30
sa(dp31
g2
S'146116973,146774381,146839904,147044054,147108350,147121163,147128836,147132509,147300290,147395780,147486041,147562257,147639306,147903721,147977989,148118288,148147709,148172478,148217524,148229779,148267126,148383888,148409471,148420998,'
p32
sg4
S'uc003weu.3'
p33
sg6
I146116358
sg7
I24
sg8
S'CNTNAP2'
p34
sg10
I148415616
sg11
S'ENST00000361727.6'
p35
sg13
g14
sg15
S'Q9UHC6'
p36
sg17
I146116876
sg18
S'chr7'
p37
sg20
I148420998
sg21
S'146116358,146774270,146839710,147043906,147108146,147120978,147128692,147132244,147300140,147395608,147485934,147562137,147639105,147903564,147977861,148118117,148147490,148172241,148217287,148229645,148267032,148383648,148409390,148415416,'
p38
sa.