(lp0
(dp1
VexonEnds
p2
S'124760,165550,193250,204589,'
p3
sVname
p4
S'uc033ayp.2'
p5
sVtxStart
p6
I124587
sVexonCount
p7
I4
sVgname
p8
S'AC237044.1'
p9
sVcdsEnd
p10
I199211
sValignID
p11
S'ENST00000613345.1'
p12
sVstrand
p13
S'+'
p14
sVproteinID
p15
S''
p16
sVcdsStart
p17
I165504
sVchrom
p18
S'chr7_KI270808v1_alt'
p19
sVtxEnd
p20
I204589
sVexonStarts
p21
S'124587,165310,193169,199011,'
p22
sa.