(lp0
(dp1
VexonEnds
p2
S'70044231,70044697,70108482,70109804,70113132,70126415,70131612,70140288,70143819,70168795,70170631,70218596,70225834,70226970,'
p3
sVname
p4
S'uc004ahm.3'
p5
sVtxStart
p6
I70043580
sVexonCount
p7
I14
sVgname
p8
S'MAMDC2'
p9
sVcdsEnd
p10
I70226032
sValignID
p11
S'ENST00000377182.4'
p12
sVstrand
p13
S'+'
p14
sVproteinID
p15
S'Q7Z304'
p16
sVcdsStart
p17
I70044197
sVchrom
p18
S'chr9'
p19
sVtxEnd
p20
I70226970
sVexonStarts
p21
S'70043580,70044583,70108210,70109719,70112994,70126158,70131518,70140144,70143553,70168701,70170478,70218336,70225749,70225967,'
p22
sa(dp23
g2
S'70087630,70088494,70106042,70109344,70113860,70148078,70154241,70171124,70175883,'
p24
sg4
S'uc064tqr.1'
p25
sg6
I70087418
sg7
I9
sg8
S'MAMDC2-AS1'
p26
sg10
I70087418
sg11
S'ENST00000591368.4'
p27
sg13
S'-'
p28
sg15
S''
p29
sg17
I70087418
sg18
S'chr9'
p30
sg20
I70175883
sg21
S'70087418,70088318,70105915,70109207,70113754,70147980,70154147,70171037,70175754,'
p31
sa(dp32
g2
S'70154241,70157742,70171124,70175832,'
p33
sg4
S'uc004aho.2'
p34
sg6
I70153133
sg7
I4
sg8
S'MAMDC2-AS1'
p35
sg10
I70153133
sg11
S'ENST00000377178.3'
p36
sg13
g28
sg15
g29
sg17
I70153133
sg18
S'chr9'
p37
sg20
I70175832
sg21
S'70153133,70157511,70171037,70175754,'
p38
sa.