(lp0
(dp1
VexonEnds
p2
S'216718,219041,224239,230552,233215,233534,236431,'
p3
sVname
p4
S'uc001lok.5'
p5
sVtxStart
p6
I215457
sVexonCount
p7
I7
sVgname
p8
S'SIRT3'
p9
sVcdsEnd
p10
I236328
sValignID
p11
S'ENST00000382743.8'
p12
sVstrand
p13
S'-'
p14
sVproteinID
p15
S'Q9NTG7'
p16
sVcdsStart
p17
I216697
sVchrom
p18
S'chr11'
p19
sVtxEnd
p20
I236431
sVexonStarts
p21
S'215457,218831,224077,230451,232982,233342,236047,'
p22
sa(dp23
g2
S'216718,219041,223849,224239,236337,'
p24
sg4
S'uc057xcy.1'
p25
sg6
I216144
sg7
I5
sg8
S'SIRT3'
p26
sg10
I236328
sg11
S'ENST00000529937.1'
p27
sg13
g14
sg15
S'B7WNN4'
p28
sg17
I223753
sg18
S'chr11'
p29
sg20
I236337
sg21
S'216144,218777,222378,224065,236193,'
p30
sa(dp31
g2
S'216718,219041,224239,230552,233215,233534,236343,'
p32
sg4
S'uc057xcz.1'
p33
sg6
I216178
sg7
I7
sg8
S'SIRT3'
p34
sg10
I236328
sg11
S'ENST00000532837.5'
p35
sg13
g14
sg15
S'E9PIT6'
p36
sg17
I233528
sg18
S'chr11'
p37
sg20
I236343
sg21
S'216178,218831,224077,230451,232982,233342,236193,'
p38
sa(dp39
g2
S'216718,219041,224239,230552,233215,233437,236354,'
p40
sg4
S'uc010qvn.3'
p41
sg6
I216205
sg7
I7
sg8
S'SIRT3'
p42
sg10
I236328
sg11
S'ENST00000525319.5'
p43
sg13
g14
sg15
S'E9PK80'
p44
sg17
I216697
sg18
S'chr11'
p45
sg20
I236354
sg21
S'216205,218831,224077,230451,232982,233342,236193,'
p46
sa(dp47
g2
S'216718,219041,224239,230552,233215,236354,'
p48
sg4
S'uc010qvm.3'
p49
sg6
I216390
sg7
I6
sg8
S'SIRT3'
p50
sg10
I236328
sg11
S'ENST00000524564.5'
p51
sg13
g14
sg15
S'E9PN58'
p52
sg17
I216697
sg18
S'chr11'
p53
sg20
I236354
sg21
S'216390,218777,224077,230451,232982,236047,'
p54
sa(dp55
g2
S'216718,219041,230552,233215,233534,236352,'
p56
sg4
S'uc010qvp.3'
p57
sg6
I216524
sg7
I6
sg8
S'SIRT3'
p58
sg10
I236328
sg11
S'ENST00000532956.5'
p59
sg13
g14
sg15
S'E9PM75'
p60
sg17
I216697
sg18
S'chr11'
p61
sg20
I236352
sg21
S'216524,218831,230451,232982,233342,236047,'
p62
sa(dp63
g2
S'216718,219041,224239,230552,233215,233534,236834,'
p64
sg4
S'uc010qvq.3'
p65
sg6
I216610
sg7
I7
sg8
S'SIRT3'
p66
sg10
I233389
sg11
S'ENST00000529382.5'
p67
sg13
g14
sg15
S'Q9NTG7'
p68
sg17
I216697
sg18
S'chr11'
p69
sg20
I236834
sg21
S'216610,218831,224077,230451,232982,233342,236615,'
p70
sa.