(lp0
(dp1
VexonEnds
p2
S'83224,83592,93163,93889,94650,95127,95670,98045,98496,99476,99760,100308,100534,100871,101443,101586,101910,102210,102452,102780,103176,103354,103543,103759,104008,104728,105173,105449,105652,106126,106446,107468,111099,'
p3
sVname
p4
S'uc058jmv.1'
p5
sVtxStart
p6
I82411
sVexonCount
p7
I33
sVcdsEnd
p8
I111048
sValignID
p9
S'ENST00000627926.1'
p10
sVstrand
p11
S'-'
p12
sVproteinID
p13
S''
p14
sVcdsStart
p15
I83046
sVchrom
p16
S'chr11_KI270927v1_alt'
p17
sVtxEnd
p18
I111099
sVexonStarts
p19
S'82411,83489,85351,93667,94482,95076,95607,97901,98339,99236,99574,100197,100392,100719,101333,101533,101660,102077,102357,102618,103038,103281,103438,103620,103887,104605,104965,105339,105561,105999,106205,107405,110996,'
p20
sa(dp21
g2
S'83224,83592,87599,93163,93889,94650,95127,95670,98045,98496,99476,99760,100308,100534,100871,101443,101586,101910,102210,102452,102780,103176,103354,103543,103759,104008,104728,105173,105449,105652,106126,106446,107468,111099,'
p22
sg4
S'uc058jmw.1'
p23
sg6
I82414
sg7
I34
sg8
I111048
sg9
S'ENST00000619759.1'
p24
sg11
g12
sg13
g14
sg15
I83046
sg16
S'chr11_KI270927v1_alt'
p25
sg18
I111099
sg19
S'82414,83489,85351,92402,93667,94482,95076,95607,97901,98339,99236,99574,100197,100392,100719,101333,101533,101660,102077,102357,102618,103038,103281,103438,103620,103887,104605,104965,105339,105561,105999,106205,107405,110996,'
p26
sa.