(lp0
(dp1
VexonEnds
p2
S'69147740,69168439,69171564,'
p3
sVname
p4
S'uc031xts.2'
p5
sVtxStart
p6
I69147227
sVexonCount
p7
I3
sVgname
p8
S'RP11-554A11.8'
p9
sVcdsEnd
p10
I69147227
sValignID
p11
S'ENST00000562772.1'
p12
sVstrand
p13
S'-'
p14
sVproteinID
p15
S''
p16
sVcdsStart
p17
I69147227
sVchrom
p18
S'chr11'
p19
sVtxEnd
p20
I69171564
sVexonStarts
p21
S'69147227,69168328,69171198,'
p22
sa.