(lp0
(dp1
VexonEnds
p2
S'1013633,1014001,1018770,1019496,1020257,1020734,1021277,1023652,1024103,1025083,1025367,1025915,1026141,1026478,1027050,1027193,1027517,1027817,1028059,1028387,1028783,1028961,1029150,1029366,1029615,1030335,1030780,1031056,1031259,1031733,1032053,1033075,1036706,'
p3
sVname
p4
S'uc001lsw.3'
p5
sVtxStart
p6
I1012820
sVexonCount
p7
I33
sVcdsEnd
p8
I1036655
sValignID
p9
S'ENST00000421673.5'
p10
sVstrand
p11
S'-'
p12
sVproteinID
p13
S'Q6W4X9'
p14
sVcdsStart
p15
I1013455
sVchrom
p16
S'chr11'
p17
sVtxEnd
p18
I1036706
sVexonStarts
p19
S'1012820,1013898,1015761,1019274,1020089,1020683,1021214,1023508,1023946,1024843,1025181,1025804,1025999,1026326,1026940,1027140,1027267,1027684,1027964,1028225,1028645,1028888,1029045,1029227,1029494,1030212,1030572,1030946,1031168,1031606,1031812,1033012,1036603,'
p20
sa.