(lp0
(dp1
Vbin
p2
I75
sVchromEnd
p3
I2791270
sVname
p4
S'chr1_KI270762v1_alt'
p5
sVlength
p6
I354444
sVchromStart
p7
I2448810
sVchrom
p8
S'chr1'
p9
sa(dp10
g2
I85
sg3
I13312803
sg4
S'chr1_KI270766v1_alt'
p11
sg6
I256271
sg7
I13075112
sg8
S'chr1'
p12
sa(dp13
g2
I12
sg3
I30456601
sg4
S'chr1_KI270760v1_alt'
p14
sg6
I109528
sg7
I30352190
sg8
S'chr1'
p15
sa(dp16
g2
I210
sg3
I144674781
sg4
S'chr1_KI270765v1_alt'
p17
sg6
I185285
sg7
I144488705
sg8
S'chr1'
p18
sa(dp19
g2
I219
sg3
I153865738
sg4
S'chr1_GL383518v1_alt'
p20
sg6
I182439
sg7
I153700530
sg8
S'chr1'
p21
sa(dp22
g2
I1769
sg3
I155305245
sg4
S'chr1_GL383519v1_alt'
p23
sg6
I110268
sg7
I155210381
sg8
S'chr1'
p24
sa(dp25
g2
I262
sg3
I198725175
sg4
S'chr1_GL383520v2_alt'
p26
sg6
I366580
sg7
I198370082
sg8
S'chr1'
p27
sa(dp28
g2
I2371
sg3
I234211370
sg4
S'chr1_KI270764v1_alt'
p29
sg6
I50258
sg7
I234163456
sg8
S'chr1'
p30
sa(dp31
g2
I4
sg3
I243895211
sg4
S'chr1_KI270763v1_alt'
p32
sg6
I911658
sg7
I242987892
sg8
S'chr1'
p33
sa(dp34
g2
I38
sg3
I245727576
sg4
S'chr1_KI270759v1_alt'
p35
sg6
I425601
sg7
I245305696
sg8
S'chr1'
p36
sa(dp37
g2
I309
sg3
I248511794
sg4
S'chr1_KI270892v1_alt'
p38
sg6
I162212
sg7
I248352026
sg8
S'chr1'
p39
sa(dp40
g2
I309
sg3
I248511794
sg4
S'chr1_KI270761v1_alt'
p41
sg6
I165834
sg7
I248352026
sg8
S'chr1'
p42
sa(dp43
g2
I99
sg3
I27417608
sg4
S'chr10_GL383545v1_alt'
p44
sg6
I179254
sg7
I27285654
sg8
S'chr10'
p45
sa(dp46
g2
I113
sg3
I42298939
sg4
S'chr10_KI270824v1_alt'
p47
sg6
I181496
sg7
I42103239
sg8
S'chr10'
p48
sa(dp49
g2
I116
sg3
I45468971
sg4
S'chr10_GL383546v1_alt'
p50
sg6
I309802
sg7
I45175232
sg8
S'chr10'
p51
sa(dp52
g2
I147
sg3
I77931226
sg4
S'chr10_KI270825v1_alt'
p53
sg6
I188315
sg7
I77761308
sg8
S'chr10'
p54
sa(dp55
g2
I73
sg3
I678681
sg4
S'chr11_KI270832v1_alt'
p56
sg6
I210133
sg7
I470359
sg8
S'chr11'
p57
sa(dp58
g2
I9
sg3
I1150311
sg4
S'chr11_KI270927v1_alt'
p59
sg6
I218612
sg7
I937257
sg8
S'chr11'
p60
sa(dp61
g2
I592
sg3
I1037146
sg4
S'chr11_KI270902v1_alt'
p62
sg6
I106711
sg7
I937257
sg8
S'chr11'
p63
sa(dp64
g2
I74
sg3
I1740879
sg4
S'chr11_KI270903v1_alt'
p65
sg6
I214625
sg7
I1523473
sg8
S'chr11'
p66
sa(dp67
g2
I74
sg3
I1694855
sg4
S'chr11_KI270830v1_alt'
p68
sg6
I177092
sg7
I1523473
sg8
S'chr11'
p69
sa(dp70
g2
I75
sg3
I3065846
sg4
S'chr11_KI270831v1_alt'
p71
sg6
I296895
sg7
I2767813
sg8
S'chr11'
p72
sa(dp73
g2
I80
sg3
I7972558
sg4
S'chr11_KI270829v1_alt'
p74
sg6
I204059
sg7
I7779132
sg8
S'chr11'
p75
sa(dp76
g2
I97
sg3
I25319080
sg4
S'chr11_GL383547v1_alt'
p77
sg6
I154407
sg7
I25170406
sg8
S'chr11'
p78
sa(dp79
g2
I126
sg3
I56382643
sg4
S'chr11_JH159136v1_alt'
p80
sg6
I200998
sg7
I56189251
sg8
S'chr11'
p81
sa(dp82
g2
I127
sg3
I56873567
sg4
S'chr11_JH159137v1_alt'
p83
sg6
I191409
sg7
I56693232
sg8
S'chr11'
p84
sa(dp85
g2
I17
sg3
I69229344
sg4
S'chr11_KI270827v1_alt'
p86
sg6
I67707
sg7
I69165290
sg8
S'chr11'
p87
sa(dp88
g2
I201
sg3
I134962792
sg4
S'chr11_KI270826v1_alt'
p89
sg6
I186169
sg7
I134773599
sg8
S'chr11'
p90
sa(dp91
g2
I73
sg3
I173298
sg4
S'chr12_GL877875v1_alt'
p92
sg6
I167313
sg7
I10000
sg8
S'chr12'
p93
sa(dp94
g2
I83
sg3
I11377386
sg4
S'chr12_KI270904v1_alt'
p95
sg6
I572349
sg7
I10801294
sg8
S'chr12'
p96
sa(dp97
g2
I83
sg3
I11177617
sg4
S'chr12_GL877876v1_alt'
p98
sg6
I408271
sg7
I10801294
sg8
S'chr12'
p99
sa(dp100
g2
I671
sg3
I11377386
sg4
S'chr12_KI270837v1_alt'
p101
sg6
I40090
sg7
I11337224
sg8
S'chr12'
p102
sa(dp103
g2
I99
sg3
I28110778
sg4
S'chr12_GL383549v1_alt'
p104
sg6
I120804
sg7
I27996033
sg8
S'chr12'
p105
sa(dp106
g2
I102
sg3
I31347345
sg4
S'chr12_KI270835v1_alt'
p107
sg6
I238139
sg7
I31111479
sg8
S'chr12'
p108
sa(dp109
g2
I128
sg3
I58092755
sg4
S'chr12_GL383550v2_alt'
p110
sg6
I169178
sg7
I57932736
sg8
S'chr12'
p111
sa(dp112
g2
I129
sg3
I59060870
sg4
S'chr12_GL383552v1_alt'
p113
sg6
I138655
sg7
I58929264
sg8
S'chr12'
p114
sa(dp115
g2
I169
sg3
I101258295
sg4
S'chr12_GL383553v2_alt'
p116
sg6
I152874
sg7
I101111598
sg8
S'chr12'
p117
sa(dp118
g2
I191
sg3
I123945954
sg4
S'chr12_KI270834v1_alt'
p119
sg6
I119498
sg7
I123826508
sg8
S'chr12'
p120
sa(dp121
g2
I193
sg3
I126405474
sg4
S'chr12_GL383551v1_alt'
p122
sg6
I184319
sg7
I126227197
sg8
S'chr12'
p123
sa(dp124
g2
I1579
sg3
I130394967
sg4
S'chr12_KI270833v1_alt'
p125
sg6
I76061
sg7
I130323075
sg8
S'chr12'
p126
sa(dp127
g2
I1588
sg3
I131584984
sg4
S'chr12_KI270836v1_alt'
p128
sg6
I56134
sg7
I131543019
sg8
S'chr12'
p129
sa(dp130
g2
I11
sg3
I18884136
sg4
S'chr13_KI270840v1_alt'
p131
sg6
I191684
sg7
I18698350
sg8
S'chr13'
p132
sa(dp133
g2
I97
sg3
I25828680
sg4
S'chr13_KI270839v1_alt'
p134
sg6
I180306
sg7
I25652361
sg8
S'chr13'
p135
sa(dp136
g2
I140
sg3
I70442876
sg4
S'chr13_KI270843v1_alt'
p137
sg6
I103832
sg7
I70341885
sg8
S'chr13'
p138
sa(dp139
g2
I158
sg3
I89764093
sg4
S'chr13_KI270841v1_alt'
p140
sg6
I169134
sg7
I89598963
sg8
S'chr13'
p141
sa(dp142
g2
I22
sg3
I112505943
sg4
S'chr13_KI270838v1_alt'
p143
sg6
I306913
sg7
I112182874
sg8
S'chr13'
p144
sa(dp145
g2
I1452
sg3
I113763795
sg4
S'chr13_KI270842v1_alt'
p146
sg6
I37287
sg7
I113727530
sg8
S'chr13'
p147
sa(dp148
g2
I160
sg3
I91854371
sg4
S'chr14_KI270844v1_alt'
p149
sg6
I322166
sg7
I91535864
sg8
S'chr14'
p150
sa(dp151
g2
I20
sg3
I94394539
sg4
S'chr14_KI270847v1_alt'
p152
sg6
I1511111
sg7
I92885438
sg8
S'chr14'
p153
sa(dp154
g2
I172
sg3
I104622880
sg4
S'chr14_KI270845v1_alt'
p155
sg6
I180703
sg7
I104449321
sg8
S'chr14'
p156
sa(dp157
g2
I21
sg3
I106860219
sg4
S'chr14_KI270846v1_alt'
p158
sg6
I1351393
sg7
I105533002
sg8
S'chr14'
p159
sa(dp160
g2
I93
sg3
I21714003
sg4
S'chr15_KI270852v1_alt'
p161
sg6
I478999
sg7
I21242090
sg8
S'chr15'
p162
sa(dp163
g2
I94
sg3
I22618722
sg4
S'chr15_KI270851v1_alt'
p164
sg6
I263054
sg7
I22358242
sg8
S'chr15'
p165
sa(dp166
g2
I11
sg3
I23226874
sg4
S'chr15_KI270848v1_alt'
p167
sg6
I327382
sg7
I22902960
sg8
S'chr15'
p168
sa(dp169
g2
I11
sg3
I23226874
sg4
S'chr15_KI270906v1_alt'
p170
sg6
I196384
sg7
I23035267
sg8
S'chr15'
p171
sa(dp172
g2
I12
sg3
I32946929
sg4
S'chr15_KI270905v1_alt'
p173
sg6
I5161414
sg7
I27865713
sg8
S'chr15'
p174
sa(dp175
g2
I100
sg3
I28596947
sg4
S'chr15_GL383554v1_alt'
p176
sg6
I296527
sg7
I28312040
sg8
S'chr15'
p177
sa(dp178
g2
I115
sg3
I44913053
sg4
S'chr15_KI270849v1_alt'
p179
sg6
I244917
sg7
I44676663
sg8
S'chr15'
p180
sa(dp181
g2
I16
sg3
I66284818
sg4
S'chr15_GL383555v2_alt'
p182
sg6
I388773
sg7
I65908182
sg8
S'chr15'
p183
sa(dp184
g2
I151
sg3
I82641774
sg4
S'chr15_KI270850v1_alt'
p185
sg6
I430880
sg7
I82289983
sg8
S'chr15'
p186
sa(dp187
g2
I73
sg3
I531525
sg4
S'chr16_KI270854v1_alt'
p188
sg6
I134193
sg7
I400854
sg8
S'chr16'
p189
sa(dp190
g2
I599
sg3
I1933852
sg4
S'chr16_KI270856v1_alt'
p191
sg6
I63982
sg7
I1871894
sg8
S'chr16'
p192
sa(dp193
g2
I77
sg3
I4530534
sg4
S'chr16_KI270855v1_alt'
p194
sg6
I232857
sg7
I4299636
sg8
S'chr16'
p195
sa(dp196
g2
I1
sg3
I16998739
sg4
S'chr16_KI270853v1_alt'
p197
sg6
I2659700
sg7
I14427143
sg8
S'chr16'
p198
sa(dp199
g2
I126
sg3
I55968548
sg4
S'chr16_GL383556v1_alt'
p200
sg6
I192462
sg7
I55772980
sg8
S'chr16'
p201
sa(dp202
g2
I17
sg3
I69224690
sg4
S'chr16_GL383557v1_alt'
p203
sg6
I89672
sg7
I69140150
sg8
S'chr16'
p204
sa(dp205
g2
I73
sg3
I402637
sg4
S'chr17_GL383563v3_alt'
p206
sg6
I375691
sg7
I60000
sg8
S'chr17'
p207
sa(dp208
g2
I73
sg3
I402637
sg4
S'chr17_KI270907v1_alt'
p209
sg6
I137721
sg7
I266971
sg8
S'chr17'
p210
sa(dp211
g2
I9
sg3
I1449331
sg4
S'chr17_KI270862v1_alt'
p212
sg6
I391357
sg7
I960753
sg8
S'chr17'
p213
sa(dp214
g2
I9
sg3
I1117082
sg4
S'chr17_KI270910v1_alt'
p215
sg6
I157099
sg7
I960753
sg8
S'chr17'
p216
sa(dp217
g2
I74
sg3
I1767739
sg4
S'chr17_KI270861v1_alt'
p218
sg6
I196688
sg7
I1569972
sg8
S'chr17'
p219
sa(dp220
g2
I13
sg3
I38841755
sg4
S'chr17_KI270857v1_alt'
p221
sg6
I2877074
sg7
I35765468
sg8
S'chr17'
p222
sa(dp223
g2
I107
sg3
I36270057
sg4
S'chr17_KI270909v1_alt'
p224
sg6
I325800
sg7
I36045903
sg8
S'chr17'
p225
sa(dp226
g2
I13
sg3
I41128408
sg4
S'chr17_JH159146v1_alt'
p227
sg6
I278131
sg7
I40850732
sg8
S'chr17'
p228
sa(dp229
g2
I112
sg3
I41307109
sg4
S'chr17_JH159148v1_alt'
p230
sg6
I88070
sg7
I41207669
sg8
S'chr17'
p231
sa(dp232
g2
I112
sg3
I41307109
sg4
S'chr17_JH159147v1_alt'
p233
sg6
I70345
sg7
I41226442
sg8
S'chr17'
p234
sa(dp235
g2
I112
sg3
I41432935
sg4
S'chr17_GL383564v2_alt'
p236
sg6
I133151
sg7
I41307109
sg8
S'chr17'
p237
sa(dp238
g2
I14
sg3
I46903773
sg4
S'chr17_KI270908v1_alt'
p239
sg6
I1423190
sg7
I45309497
sg8
S'chr17'
p240
sa(dp241
g2
I14
sg3
I46836265
sg4
S'chr17_GL000258v2_alt'
p242
sg6
I1821992
sg7
I45309497
sg8
S'chr17'
p243
sa(dp244
g2
I140
sg3
I70524219
sg4
S'chr17_GL383565v1_alt'
p245
sg6
I223995
sg7
I70306277
sg8
S'chr17'
p246
sa(dp247
g2
I141
sg3
I71819311
sg4
S'chr17_KI270858v1_alt'
p248
sg6
I235827
sg7
I71584517
sg8
S'chr17'
p249
sa(dp250
g2
I142
sg3
I72935743
sg4
S'chr17_KI270859v1_alt'
p251
sg6
I108763
sg7
I72833330
sg8
S'chr17'
p252
sa(dp253
g2
I1174
sg3
I77299326
sg4
S'chr17_GL383566v1_alt'
p254
sg6
I90219
sg7
I77220729
sg8
S'chr17'
p255
sa(dp256
g2
I152
sg3
I83103577
sg4
S'chr17_KI270860v1_alt'
p257
sg6
I178921
sg7
I82922719
sg8
S'chr17'
p258
sa(dp259
g2
I918
sg3
I43773892
sg4
S'chr18_KI270864v1_alt'
p260
sg6
I111737
sg7
I43667276
sg8
S'chr18'
p261
sa(dp262
g2
I1
sg3
I50574792
sg4
S'chr18_GL383567v1_alt'
p263
sg6
I289831
sg7
I50292193
sg8
S'chr18'
p264
sa(dp265
g2
I122
sg3
I51821642
sg4
S'chr18_GL383570v1_alt'
p266
sg6
I164789
sg7
I51662935
sg8
S'chr18'
p267
sa(dp268
g2
I137
sg3
I67552551
sg4
S'chr18_GL383571v1_alt'
p269
sg6
I198278
sg7
I67423722
sg8
S'chr18'
p270
sa(dp271
g2
I142
sg3
I73024781
sg4
S'chr18_GL383568v1_alt'
p272
sg6
I104552
sg7
I72933121
sg8
S'chr18'
p273
sa(dp274
g2
I18
sg3
I78664469
sg4
S'chr18_KI270912v1_alt'
p275
sg6
I174061
sg7
I78493466
sg8
S'chr18'
p276
sa(dp277
g2
I18
sg3
I78652030
sg4
S'chr18_GL383569v1_alt'
p278
sg6
I167950
sg7
I78493466
sg8
S'chr18'
p279
sa(dp280
g2
I148
sg3
I79088997
sg4
S'chr18_KI270911v1_alt'
p281
sg6
I157710
sg7
I78934885
sg8
S'chr18'
p282
sa(dp283
g2
I148
sg3
I79088997
sg4
S'chr18_GL383572v1_alt'
p284
sg6
I159547
sg7
I78934885
sg8
S'chr18'
p285
sa(dp286
g2
I18
sg3
I79725366
sg4
S'chr18_KI270863v1_alt'
p287
sg6
I167999
sg7
I79563121
sg8
S'chr18'
p288
sa(dp289
g2
I591
sg3
I881412
sg4
S'chr19_KI270868v1_alt'
p290
sg6
I61734
sg7
I821157
sg8
S'chr19'
p291
sa(dp292
g2
I593
sg3
I1158195
sg4
S'chr19_KI270865v1_alt'
p293
sg6
I52969
sg7
I1107413
sg8
S'chr19'
p294
sa(dp295
g2
I11
sg3
I21042381
sg4
S'chr19_GL383573v1_alt'
p296
sg6
I385657
sg7
I20663140
sg8
S'chr19'
p297
sa(dp298
g2
I93
sg3
I21809032
sg4
S'chr19_GL383575v2_alt'
p299
sg6
I170222
sg7
I21648289
sg8
S'chr19'
p300
sa(dp301
g2
I94
sg3
I22300666
sg4
S'chr19_GL383576v1_alt'
p302
sg6
I188024
sg7
I22120849
sg8
S'chr19'
p303
sa(dp304
g2
I105
sg3
I34300950
sg4
S'chr19_GL383574v1_alt'
p305
sg6
I155864
sg7
I34152259
sg8
S'chr19'
p306
sa(dp307
g2
I847
sg3
I34392977
sg4
S'chr19_KI270866v1_alt'
p308
sg6
I43156
sg7
I34350806
sg8
S'chr19'
p309
sa(dp310
g2
I112
sg3
I41682000
sg4
S'chr19_KI270867v1_alt'
p311
sg6
I233762
sg7
I41456580
sg8
S'chr19'
p312
sa(dp313
g2
I15
sg3
I55084318
sg4
S'chr19_KI270938v1_alt'
p314
sg6
I1066800
sg7
I54025633
sg8
S'chr19'
p315
sa(dp316
g2
I15
sg3
I55084318
sg4
S'chr19_GL949753v2_alt'
p317
sg6
I796479
sg7
I54025633
sg8
S'chr19'
p318
sa(dp319
g2
I15
sg3
I55084318
sg4
S'chr19_GL949752v1_alt'
p320
sg6
I987100
sg7
I54025633
sg8
S'chr19'
p321
sa(dp322
g2
I15
sg3
I55084318
sg4
S'chr19_GL949751v2_alt'
p323
sg6
I1002683
sg7
I54025633
sg8
S'chr19'
p324
sa(dp325
g2
I15
sg3
I55084318
sg4
S'chr19_GL949750v2_alt'
p326
sg6
I1066390
sg7
I54025633
sg8
S'chr19'
p327
sa(dp328
g2
I15
sg3
I55084318
sg4
S'chr19_GL949749v2_alt'
p329
sg6
I1091841
sg7
I54025633
sg8
S'chr19'
p330
sa(dp331
g2
I15
sg3
I55084318
sg4
S'chr19_GL949748v2_alt'
p332
sg6
I1064304
sg7
I54025633
sg8
S'chr19'
p333
sa(dp334
g2
I15
sg3
I55084318
sg4
S'chr19_GL949747v2_alt'
p335
sg6
I729520
sg7
I54025633
sg8
S'chr19'
p336
sa(dp337
g2
I15
sg3
I55084318
sg4
S'chr19_GL949746v1_alt'
p338
sg6
I987716
sg7
I54025633
sg8
S'chr19'
p339
sa(dp340
g2
I125
sg3
I54881189
sg4
S'chr19_KI270887v1_alt'
p341
sg6
I209512
sg7
I54698376
sg8
S'chr19'
p342
sa(dp343
g2
I125
sg3
I54875515
sg4
S'chr19_KI270882v1_alt'
p344
sg6
I248807
sg7
I54698376
sg8
S'chr19'
p345
sa(dp346
g2
I125
sg3
I54869415
sg4
S'chr19_KI270931v1_alt'
p347
sg6
I170148
sg7
I54698376
sg8
S'chr19'
p348
sa(dp349
g2
I125
sg3
I54869394
sg4
S'chr19_KI270932v1_alt'
p350
sg6
I215732
sg7
I54698376
sg8
S'chr19'
p351
sa(dp352
g2
I125
sg3
I54869367
sg4
S'chr19_KI270885v1_alt'
p353
sg6
I171027
sg7
I54698376
sg8
S'chr19'
p354
sa(dp355
g2
I125
sg3
I54869302
sg4
S'chr19_KI270916v1_alt'
p356
sg6
I184516
sg7
I54698376
sg8
S'chr19'
p357
sa(dp358
g2
I125
sg3
I54869245
sg4
S'chr19_KI270884v1_alt'
p359
sg6
I157053
sg7
I54698376
sg8
S'chr19'
p360
sa(dp361
g2
I125
sg3
I54869057
sg4
S'chr19_KI270919v1_alt'
p362
sg6
I170701
sg7
I54698376
sg8
S'chr19'
p363
sa(dp364
g2
I125
sg3
I54869056
sg4
S'chr19_KI270933v1_alt'
p365
sg6
I170537
sg7
I54698376
sg8
S'chr19'
p366
sa(dp367
g2
I125
sg3
I54869056
sg4
S'chr19_KI270930v1_alt'
p368
sg6
I200773
sg7
I54698376
sg8
S'chr19'
p369
sa(dp370
g2
I125
sg3
I54869056
sg4
S'chr19_KI270915v1_alt'
p371
sg6
I170665
sg7
I54698376
sg8
S'chr19'
p372
sa(dp373
g2
I125
sg3
I54869056
sg4
S'chr19_KI270891v1_alt'
p374
sg6
I170680
sg7
I54698376
sg8
S'chr19'
p375
sa(dp376
g2
I125
sg3
I54869056
sg4
S'chr19_KI270889v1_alt'
p377
sg6
I170698
sg7
I54698376
sg8
S'chr19'
p378
sa(dp379
g2
I125
sg3
I54869045
sg4
S'chr19_KI270890v1_alt'
p380
sg6
I184499
sg7
I54698376
sg8
S'chr19'
p381
sa(dp382
g2
I125
sg3
I54868929
sg4
S'chr19_KI270888v1_alt'
p383
sg6
I155532
sg7
I54698376
sg8
S'chr19'
p384
sa(dp385
g2
I125
sg3
I54868790
sg4
S'chr19_KI270883v1_alt'
p386
sg6
I170399
sg7
I54698376
sg8
S'chr19'
p387
sa(dp388
g2
I125
sg3
I54861971
sg4
S'chr19_GL000209v2_alt'
p389
sg6
I177381
sg7
I54698376
sg8
S'chr19'
p390
sa(dp391
g2
I125
sg3
I54858949
sg4
S'chr19_KI270914v1_alt'
p392
sg6
I205194
sg7
I54698376
sg8
S'chr19'
p393
sa(dp394
g2
I125
sg3
I54858867
sg4
S'chr19_KI270886v1_alt'
p395
sg6
I204239
sg7
I54698376
sg8
S'chr19'
p396
sa(dp397
g2
I125
sg3
I54821095
sg4
S'chr19_KI270918v1_alt'
p398
sg6
I123111
sg7
I54698376
sg8
S'chr19'
p399
sa(dp400
g2
I125
sg3
I54911985
sg4
S'chr19_KI270921v1_alt'
p401
sg6
I282224
sg7
I54701161
sg8
S'chr19'
p402
sa(dp403
g2
I125
sg3
I54911985
sg4
S'chr19_KI270923v1_alt'
p404
sg6
I189352
sg7
I54709011
sg8
S'chr19'
p405
sa(dp406
g2
I125
sg3
I54911985
sg4
S'chr19_KI270920v1_alt'
p407
sg6
I198005
sg7
I54713159
sg8
S'chr19'
p408
sa(dp409
g2
I125
sg3
I54911985
sg4
S'chr19_KI270917v1_alt'
p410
sg6
I190932
sg7
I54721062
sg8
S'chr19'
p411
sa(dp412
g2
I125
sg3
I54911985
sg4
S'chr19_KI270922v1_alt'
p413
sg6
I187935
sg7
I54724021
sg8
S'chr19'
p414
sa(dp415
g2
I125
sg3
I54911985
sg4
S'chr19_KI270929v1_alt'
p416
sg6
I186203
sg7
I54725824
sg8
S'chr19'
p417
sa(dp418
g2
I73
sg3
I860300
sg4
S'chr2_KI270770v1_alt'
p419
sg6
I136240
sg7
I728877
sg8
S'chr2'
p420
sa(dp421
g2
I594
sg3
I1273724
sg4
S'chr2_KI270773v1_alt'
p422
sg6
I70887
sg7
I1204934
sg8
S'chr2'
p423
sa(dp424
g2
I74
sg3
I1541254
sg4
S'chr2_KI270774v1_alt'
p425
sg6
I223625
sg7
I1315176
sg8
S'chr2'
p426
sa(dp427
g2
I76
sg3
I3511146
sg4
S'chr2_KI270769v1_alt'
p428
sg6
I120616
sg7
I3391897
sg8
S'chr2'
p429
sa(dp430
g2
I107
sg3
I36363315
sg4
S'chr2_GL383521v1_alt'
p431
sg6
I143390
sg7
I36225958
sg8
S'chr2'
p432
sa(dp433
g2
I159
sg3
I90402511
sg4
S'chr2_KI270894v1_alt'
p434
sg6
I214158
sg7
I90218336
sg8
S'chr2'
p435
sa(dp436
g2
I159
sg3
I90402511
sg4
S'chr2_KI270772v1_alt'
p437
sg6
I133041
sg7
I90269481
sg8
S'chr2'
p438
sa(dp439
g2
I183
sg3
I116040717
sg4
S'chr2_KI270775v1_alt'
p440
sg6
I138019
sg7
I115908854
sg8
S'chr2'
p441
sa(dp442
g2
I184
sg3
I116981849
sg4
S'chr2_KI270771v1_alt'
p443
sg6
I110395
sg7
I116874514
sg8
S'chr2'
p444
sa(dp445
g2
I198
sg3
I131806107
sg4
S'chr2_KI270768v1_alt'
p446
sg6
I110099
sg7
I131697036
sg8
S'chr2'
p447
sa(dp448
g2
I1721
sg3
I149024119
sg4
S'chr2_GL582966v2_alt'
p449
sg6
I96131
sg7
I148934068
sg8
S'chr2'
p450
sa(dp451
g2
I1873
sg3
I168937194
sg4
S'chr2_GL383522v1_alt'
p452
sg6
I123821
sg7
I168830362
sg8
S'chr2'
p453
sa(dp454
g2
I303
sg3
I241961305
sg4
S'chr2_KI270776v1_alt'
p455
sg6
I174166
sg7
I241787902
sg8
S'chr2'
p456
sa(dp457
g2
I303
sg3
I242117508
sg4
S'chr2_KI270893v1_alt'
p458
sg6
I161218
sg7
I241961305
sg8
S'chr2'
p459
sa(dp460
g2
I303
sg3
I242117508
sg4
S'chr2_KI270767v1_alt'
p461
sg6
I161578
sg7
I241961305
sg8
S'chr2'
p462
sa(dp463
g2
I11
sg3
I17893471
sg4
S'chr20_GL383577v2_alt'
p464
sg6
I128386
sg7
I17771101
sg8
S'chr20'
p465
sa(dp466
g2
I132
sg3
I62008187
sg4
S'chr20_KI270869v1_alt'
p467
sg6
I118774
sg7
I61886305
sg8
S'chr20'
p468
sa(dp469
g2
I133
sg3
I63471095
sg4
S'chr20_KI270871v1_alt'
p470
sg6
I58661
sg7
I63414720
sg8
S'chr20'
p471
sa(dp472
g2
I134
sg3
I64274842
sg4
S'chr20_KI270870v1_alt'
p473
sg6
I183433
sg7
I64095054
sg8
S'chr20'
p474
sa(dp475
g2
I695
sg3
I14475471
sg4
S'chr21_GL383578v2_alt'
p476
sg6
I63917
sg7
I14424140
sg8
S'chr21'
p477
sa(dp478
g2
I89
sg3
I17310433
sg4
S'chr21_KI270874v1_alt'
p479
sg6
I166743
sg7
I17146892
sg8
S'chr21'
p480
sa(dp481
g2
I89
sg3
I17744061
sg4
S'chr21_KI270873v1_alt'
p482
sg6
I143900
sg7
I17603694
sg8
S'chr21'
p483
sa(dp484
g2
I94
sg3
I22296968
sg4
S'chr21_GL383579v2_alt'
p485
sg6
I201197
sg7
I22102473
sg8
S'chr21'
p486
sa(dp487
g2
I835
sg3
I32837937
sg4
S'chr21_GL383580v2_alt'
p488
sg6
I74653
sg7
I32769078
sg8
S'chr21'
p489
sa(dp490
g2
I104
sg3
I33512559
sg4
S'chr21_GL383581v2_alt'
p491
sg6
I116689
sg7
I33405428
sg8
S'chr21'
p492
sa(dp493
g2
I937
sg3
I46221322
sg4
S'chr21_KI270872v1_alt'
p494
sg6
I82692
sg7
I46140941
sg8
S'chr21'
p495
sa(dp496
g2
I94
sg3
I22624257
sg4
S'chr22_KI270875v1_alt'
p497
sg6
I259914
sg7
I22373448
sg8
S'chr22'
p498
sa(dp499
g2
I95
sg3
I23516062
sg4
S'chr22_KI270878v1_alt'
p500
sg6
I186262
sg7
I23354042
sg8
S'chr22'
p501
sa(dp502
g2
I95
sg3
I24013509
sg4
S'chr22_KI270879v1_alt'
p503
sg6
I304135
sg7
I23763638
sg8
S'chr22'
p504
sa(dp505
g2
I107
sg3
I35942668
sg4
S'chr22_KI270876v1_alt'
p506
sg6
I263666
sg7
I35685233
sg8
S'chr22'
p507
sa(dp508
g2
I108
sg3
I36877704
sg4
S'chr22_KI270877v1_alt'
p509
sg6
I101331
sg7
I36779213
sg8
S'chr22'
p510
sa(dp511
g2
I110
sg3
I39011160
sg4
S'chr22_GL383583v2_alt'
p512
sg6
I96924
sg7
I38884293
sg8
S'chr22'
p513
sa(dp514
g2
I113
sg3
I42253758
sg4
S'chr22_KI270928v1_alt'
p515
sg6
I176103
sg7
I42077655
sg8
S'chr22'
p516
sa(dp517
g2
I113
sg3
I42252562
sg4
S'chr22_GL383582v2_alt'
p518
sg6
I162811
sg7
I42077655
sg8
S'chr22'
p519
sa(dp520
g2
I906
sg3
I42139533
sg4
S'chr22_KB663609v1_alt'
p521
sg6
I74013
sg7
I42077655
sg8
S'chr22'
p522
sa(dp523
g2
I84
sg3
I11986497
sg4
S'chr3_JH636055v2_alt'
p524
sg6
I173151
sg7
I11815267
sg8
S'chr3'
p525
sa(dp526
g2
I92
sg3
I20382602
sg4
S'chr3_KI270783v1_alt'
p527
sg6
I109187
sg7
I20277966
sg8
S'chr3'
p528
sa(dp529
g2
I2
sg3
I125883802
sg4
S'chr3_KI270780v1_alt'
p530
sg6
I224108
sg7
I125665518
sg8
S'chr3'
p531
sa(dp532
g2
I217
sg3
I151759498
sg4
S'chr3_GL383526v1_alt'
p533
sg6
I180671
sg7
I151589365
sg8
S'chr3'
p534
sa(dp535
g2
I27
sg3
I154282042
sg4
S'chr3_KI270777v1_alt'
p536
sg6
I173649
sg7
I154111570
sg8
S'chr3'
p537
sa(dp538
g2
I231
sg3
I166544173
sg4
S'chr3_KI270778v1_alt'
p539
sg6
I248252
sg7
I166300783
sg8
S'chr3'
p540
sa(dp541
g2
I1992
sg3
I184533338
sg4
S'chr3_KI270781v1_alt'
p542
sg6
I113034
sg7
I184425339
sg8
S'chr3'
p543
sa(dp544
g2
I259
sg3
I195827492
sg4
S'chr3_KI270935v1_alt'
p545
sg6
I197351
sg7
I195629503
sg8
S'chr3'
p546
sa(dp547
g2
I259
sg3
I195827492
sg4
S'chr3_KI270779v1_alt'
p548
sg6
I205312
sg7
I195629503
sg8
S'chr3'
p549
sa(dp550
g2
I259
sg3
I195794735
sg4
S'chr3_KI270937v1_alt'
p551
sg6
I165607
sg7
I195629503
sg8
S'chr3'
p552
sa(dp553
g2
I259
sg3
I195794735
sg4
S'chr3_KI270936v1_alt'
p554
sg6
I164170
sg7
I195629503
sg8
S'chr3'
p555
sa(dp556
g2
I259
sg3
I195794735
sg4
S'chr3_KI270934v1_alt'
p557
sg6
I163458
sg7
I195629503
sg8
S'chr3'
p558
sa(dp559
g2
I259
sg3
I195794735
sg4
S'chr3_KI270924v1_alt'
p560
sg6
I166540
sg7
I195629503
sg8
S'chr3'
p561
sa(dp562
g2
I259
sg3
I195794735
sg4
S'chr3_KI270895v1_alt'
p563
sg6
I162896
sg7
I195629503
sg8
S'chr3'
p564
sa(dp565
g2
I261
sg3
I197558882
sg4
S'chr3_KI270782v1_alt'
p566
sg6
I162429
sg7
I197397855
sg8
S'chr3'
p567
sa(dp568
g2
I32
sg3
I198235559
sg4
S'chr3_KI270784v1_alt'
p569
sg6
I184404
sg7
I198047548
sg8
S'chr3'
p570
sa(dp571
g2
I93
sg3
I21734410
sg4
S'chr4_KI270790v1_alt'
p572
sg6
I220246
sg7
I21521366
sg8
S'chr4'
p573
sa(dp574
g2
I13
sg3
I34883858
sg4
S'chr4_GL383528v1_alt'
p575
sg6
I376187
sg7
I34517954
sg8
S'chr4'
p576
sa(dp577
g2
I126
sg3
I55785754
sg4
S'chr4_KI270787v1_alt'
p578
sg6
I111943
sg7
I55678094
sg8
S'chr4'
p579
sa(dp580
g2
I138
sg3
I69010457
sg4
S'chr4_GL000257v2_alt'
p581
sg6
I586476
sg7
I68306358
sg8
S'chr4'
p582
sa(dp583
g2
I187
sg3
I120317014
sg4
S'chr4_KI270788v1_alt'
p584
sg6
I158965
sg7
I120164198
sg8
S'chr4'
p585
sa(dp586
g2
I221
sg3
I155987264
sg4
S'chr4_GL383527v1_alt'
p587
sg6
I164536
sg7
I155835377
sg8
S'chr4'
p588
sa(dp589
g2
I251
sg3
I187048061
sg4
S'chr4_KI270785v1_alt'
p590
sg6
I119912
sg7
I186920391
sg8
S'chr4'
p591
sa(dp592
g2
I252
sg3
I188542359
sg4
S'chr4_KI270789v1_alt'
p593
sg6
I205944
sg7
I188341422
sg8
S'chr4'
p594
sa(dp595
g2
I31
sg3
I189907070
sg4
S'chr4_KI270925v1_alt'
p596
sg6
I555799
sg7
I189361857
sg8
S'chr4'
p597
sa(dp598
g2
I31
sg3
I190041016
sg4
S'chr4_KI270896v1_alt'
p599
sg6
I378547
sg7
I189666447
sg8
S'chr4'
p600
sa(dp601
g2
I31
sg3
I189907070
sg4
S'chr4_KI270786v1_alt'
p602
sg6
I244096
sg7
I189666447
sg8
S'chr4'
p603
sa(dp604
g2
I73
sg3
I626896
sg4
S'chr5_KI270793v1_alt'
p605
sg6
I126136
sg7
I502434
sg8
S'chr5'
p606
sa(dp607
g2
I9
sg3
I1161361
sg4
S'chr5_KI270792v1_alt'
p608
sg6
I179043
sg7
I981493
sg8
S'chr5'
p609
sa(dp610
g2
I74
sg3
I1509772
sg4
S'chr5_KI270791v1_alt'
p611
sg6
I195710
sg7
I1318298
sg8
S'chr5'
p612
sa(dp613
g2
I85
sg3
I12744010
sg4
S'chr5_GL383532v1_alt'
p614
sg6
I82728
sg7
I12681425
sg8
S'chr5'
p615
sa(dp616
g2
I100
sg3
I29254469
sg4
S'chr5_GL949742v1_alt'
p617
sg6
I226852
sg7
I29036497
sg8
S'chr5'
p618
sa(dp619
g2
I105
sg3
I33963236
sg4
S'chr5_KI270794v1_alt'
p620
sg6
I164558
sg7
I33800664
sg8
S'chr5'
p621
sa(dp622
g2
I17
sg3
I71614443
sg4
S'chr5_GL339449v2_alt'
p623
sg6
I1612928
sg7
I69216818
sg8
S'chr5'
p624
sa(dp625
g2
I17
sg3
I71614443
sg4
S'chr5_KI270897v1_alt'
p626
sg6
I1144418
sg7
I69795336
sg8
S'chr5'
p627
sa(dp628
g2
I1311
sg3
I95254491
sg4
S'chr5_GL383530v1_alt'
p629
sg6
I101241
sg7
I95169856
sg8
S'chr5'
p630
sa(dp631
g2
I192
sg3
I125444151
sg4
S'chr5_KI270796v1_alt'
p632
sg6
I172708
sg7
I125279465
sg8
S'chr5'
p633
sa(dp634
g2
I28
sg3
I162541648
sg4
S'chr5_GL383531v1_alt'
p635
sg6
I173459
sg7
I162373666
sg8
S'chr5'
p636
sa(dp637
g2
I242
sg3
I177996111
sg4
S'chr5_KI270898v1_alt'
p638
sg6
I130957
sg7
I177865464
sg8
S'chr5'
p639
sa(dp640
g2
I1942
sg3
I177993409
sg4
S'chr5_KI270795v1_alt'
p641
sg6
I131892
sg7
I177865464
sg8
S'chr5'
p642
sa(dp643
g2
I12
sg3
I33383765
sg4
S'chr6_GL000251v2_alt'
p644
sg6
I4795265
sg7
I28510119
sg8
S'chr6'
p645
sa(dp646
g2
I12
sg3
I33480577
sg4
S'chr6_GL000256v2_alt'
p647
sg6
I4929269
sg7
I28691465
sg8
S'chr6'
p648
sa(dp649
g2
I12
sg3
I33411973
sg4
S'chr6_GL000255v2_alt'
p650
sg6
I4606388
sg7
I28734407
sg8
S'chr6'
p651
sa(dp652
g2
I12
sg3
I33391865
sg4
S'chr6_GL000254v2_alt'
p653
sg6
I4827813
sg7
I28734407
sg8
S'chr6'
p654
sa(dp655
g2
I12
sg3
I33367716
sg4
S'chr6_GL000250v2_alt'
p656
sg6
I4672374
sg7
I28734407
sg8
S'chr6'
p657
sa(dp658
g2
I12
sg3
I33361299
sg4
S'chr6_GL000252v2_alt'
p659
sg6
I4604811
sg7
I28734407
sg8
S'chr6'
p660
sa(dp661
g2
I12
sg3
I33258200
sg4
S'chr6_GL000253v2_alt'
p662
sg6
I4677643
sg7
I28734407
sg8
S'chr6'
p663
sa(dp664
g2
I832
sg3
I32454732
sg4
S'chr6_KI270758v1_alt'
p665
sg6
I76752
sg7
I32385053
sg8
S'chr6'
p666
sa(dp667
g2
I135
sg3
I65944033
sg4
S'chr6_KI270800v1_alt'
p668
sg6
I175808
sg7
I65774813
sg8
S'chr6'
p669
sa(dp670
g2
I138
sg3
I68402208
sg4
S'chr6_KI270799v1_alt'
p671
sg6
I152148
sg7
I68262878
sg8
S'chr6'
p672
sa(dp673
g2
I148
sg3
I79446911
sg4
S'chr6_GL383533v1_alt'
p674
sg6
I124736
sg7
I79350007
sg8
S'chr6'
p675
sa(dp676
g2
I24
sg3
I128521146
sg4
S'chr6_KI270801v1_alt'
p677
sg6
I870480
sg7
I127654802
sg8
S'chr6'
p678
sa(dp679
g2
I1853
sg3
I166285980
sg4
S'chr6_KI270802v1_alt'
p680
sg6
I75005
sg7
I166220579
sg8
S'chr6'
p681
sa(dp682
g2
I29
sg3
I168951646
sg4
S'chr6_KB021644v2_alt'
p683
sg6
I185823
sg7
I168796075
sg8
S'chr6'
p684
sa(dp685
g2
I29
sg3
I169919706
sg4
S'chr6_KI270797v1_alt'
p686
sg6
I197536
sg7
I169724798
sg8
S'chr6'
p687
sa(dp688
g2
I235
sg3
I170535221
sg4
S'chr6_KI270798v1_alt'
p689
sg6
I271782
sg7
I170272762
sg8
S'chr6'
p690
sa(dp691
g2
I73
sg3
I198548
sg4
S'chr7_KI270899v1_alt'
p692
sg6
I190869
sg7
I10000
sg8
S'chr7'
p693
sa(dp694
g2
I73
sg3
I198548
sg4
S'chr7_KI270804v1_alt'
p695
sg6
I157952
sg7
I43901
sg8
S'chr7'
p696
sa(dp697
g2
I18
sg3
I76722751
sg4
S'chr7_KI270809v1_alt'
p698
sg6
I209586
sg7
I76500981
sg8
S'chr7'
p699
sa(dp700
g2
I171
sg3
I103242097
sg4
S'chr7_KI270806v1_alt'
p701
sg6
I158166
sg7
I103086562
sg8
S'chr7'
p702
sa(dp703
g2
I208
sg3
I141746583
sg4
S'chr7_GL383534v2_alt'
p704
sg6
I119183
sg7
I141633408
sg8
S'chr7'
p705
sa(dp706
g2
I3
sg3
I143088503
sg4
S'chr7_KI270803v1_alt'
p707
sg6
I1111570
sg7
I142038120
sg8
S'chr7'
p708
sa(dp709
g2
I214
sg3
I148487860
sg4
S'chr7_KI270808v1_alt'
p710
sg6
I271455
sg7
I148214873
sg8
S'chr7'
p711
sa(dp712
g2
I223
sg3
I157820586
sg4
S'chr7_KI270807v1_alt'
p713
sg6
I126434
sg7
I157697531
sg8
S'chr7'
p714
sa(dp715
g2
I27
sg3
I158477174
sg4
S'chr7_KI270805v1_alt'
p716
sg6
I209988
sg7
I158267494
sg8
S'chr7'
p717
sa(dp718
g2
I73
sg3
I861641
sg4
S'chr8_KI270818v1_alt'
p719
sg6
I145606
sg7
I718409
sg8
S'chr8'
p720
sa(dp721
g2
I9
sg3
I1141446
sg4
S'chr8_KI270812v1_alt'
p722
sg6
I282736
sg7
I861641
sg8
S'chr8'
p723
sa(dp724
g2
I74
sg3
I1280784
sg4
S'chr8_KI270901v1_alt'
p725
sg6
I136959
sg7
I1141446
sg8
S'chr8'
p726
sa(dp727
g2
I74
sg3
I1586904
sg4
S'chr8_KI270811v1_alt'
p728
sg6
I292436
sg7
I1280784
sg8
S'chr8'
p729
sa(dp730
g2
I74
sg3
I1709420
sg4
S'chr8_KI270900v1_alt'
p731
sg6
I318687
sg7
I1389716
sg8
S'chr8'
p732
sa(dp733
g2
I74
sg3
I1816624
sg4
S'chr8_KI270926v1_alt'
p734
sg6
I229282
sg7
I1586904
sg8
S'chr8'
p735
sa(dp736
g2
I9
sg3
I2817440
sg4
S'chr8_KI270821v1_alt'
p737
sg6
I985506
sg7
I1816624
sg8
S'chr8'
p738
sa(dp739
g2
I9
sg3
I7617127
sg4
S'chr8_KI270813v1_alt'
p740
sg6
I300230
sg7
I7308873
sg8
S'chr8'
p741
sa(dp742
g2
I13
sg3
I39873856
sg4
S'chr8_KI270822v1_alt'
p743
sg6
I624492
sg7
I39094317
sg8
S'chr8'
p744
sa(dp745
g2
I127
sg3
I57303398
sg4
S'chr8_KI270814v1_alt'
p746
sg6
I141812
sg7
I57173350
sg8
S'chr8'
p747
sa(dp748
g2
I195
sg3
I128925740
sg4
S'chr8_KI270810v1_alt'
p749
sg6
I374415
sg7
I128554722
sg8
S'chr8'
p750
sa(dp751
g2
I207
sg3
I141461079
sg4
S'chr8_KI270819v1_alt'
p752
sg6
I133535
sg7
I141333446
sg8
S'chr8'
p753
sa(dp754
g2
I1666
sg3
I141800272
sg4
S'chr8_KI270820v1_alt'
p755
sg6
I36640
sg7
I141766833
sg8
S'chr8'
p756
sa(dp757
g2
I209
sg3
I143163398
sg4
S'chr8_KI270817v1_alt'
p758
sg6
I158983
sg7
I143009712
sg8
S'chr8'
p759
sa(dp760
g2
I26
sg3
I143828794
sg4
S'chr8_KI270816v1_alt'
p761
sg6
I305841
sg7
I143509960
sg8
S'chr8'
p762
sa(dp763
g2
I26
sg3
I144757761
sg4
S'chr8_KI270815v1_alt'
p764
sg6
I132244
sg7
I144628749
sg8
S'chr8'
p765
sa(dp766
g2
I80
sg3
I7577169
sg4
S'chr9_GL383539v1_alt'
p767
sg6
I162988
sg7
I7428993
sg8
S'chr9'
p768
sa(dp769
g2
I139
sg3
I69477097
sg4
S'chr9_GL383540v1_alt'
p770
sg6
I71551
sg7
I69413742
sg8
S'chr9'
p771
sa(dp772
g2
I139
sg3
I70189318
sg4
S'chr9_GL383541v1_alt'
p773
sg6
I171286
sg7
I70024112
sg8
S'chr9'
p774
sa(dp775
g2
I157
sg3
I88227980
sg4
S'chr9_GL383542v1_alt'
p776
sg6
I60032
sg7
I88179046
sg8
S'chr9'
p777
sa(dp778
g2
I169
sg3
I101378291
sg4
S'chr9_KI270823v1_alt'
p779
sg6
I439082
sg7
I100948797
sg8
S'chr9'
p780
sa(dp781
g2
I73
sg3
I601516
sg4
S'chrX_KI270880v1_alt'
p782
sg6
I284869
sg7
I319337
sg8
S'chrX'
p783
sa(dp784
g2
I73
sg3
I601516
sg4
S'chrX_KI270913v1_alt'
p785
sg6
I274009
sg7
I326487
sg8
S'chrX'
p786
sa(dp787
g2
I149
sg3
I80097082
sg4
S'chrX_KI270881v1_alt'
p788
sg6
I144206
sg7
I79965153
sg8
S'chrX'
p789
sa.