(lp0
(dp1
VexonEnds
p2
S'2632675,2636620,'
p3
sVname
p4
S'uc057boq.1'
p5
sVtxStart
p6
I2632567
sVexonCount
p7
I2
sVgname
p8
S'RP13-436F16.1'
p9
sVcdsEnd
p10
I2632567
sValignID
p11
S'ENST00000427302.1'
p12
sVstrand
p13
S'+'
p14
sVproteinID
p15
S''
p16
sVcdsStart
p17
I2632567
sVchrom
p18
S'chr1'
p19
sVtxEnd
p20
I2636620
sVexonStarts
p21
S'2632567,2636355,'
p22
sa.