(lp0
(dp1
VexonEnds
p2
S'70757,77692,77950,125321,'
p3
sVname
p4
S'uc060mkx.1'
p5
sVtxStart
p6
I70697
sVexonCount
p7
I4
sVcdsEnd
p8
I70697
sValignID
p9
S'ENST00000576929.1'
p10
sVstrand
p11
S'+'
p12
sVproteinID
p13
S''
p14
sVcdsStart
p15
I70697
sVchrom
p16
S'chr17_JH159146v1_alt'
p17
sVtxEnd
p18
I125321
sVexonStarts
p19
S'70697,77526,77791,124891,'
p20
sa.