(lp0
(dp1
VexonEnds
p2
S'40921489,40928424,40928682,40975926,'
p3
sVname
p4
S'uc060ezx.1'
p5
sVtxStart
p6
I40921429
sVexonCount
p7
I4
sVcdsEnd
p8
I40921429
sValignID
p9
S'ENST00000418393.1'
p10
sVstrand
p11
S'+'
p12
sVproteinID
p13
S''
p14
sVcdsStart
p15
I40921429
sVchrom
p16
S'chr17'
p17
sVtxEnd
p18
I40975926
sVexonStarts
p19
S'40921429,40928258,40928523,40975496,'
p20
sa.