(lp0
(dp1
Vchrom
p2
S'chr1'
p3
sVsize
p4
I248956422
sa(dp5
g2
S'chr2'
p6
sg4
I242193529
sa(dp7
g2
S'chr3'
p8
sg4
I198295559
sa(dp9
g2
S'chr4'
p10
sg4
I190214555
sa(dp11
g2
S'chr5'
p12
sg4
I181538259
sa(dp13
g2
S'chr6'
p14
sg4
I170805979
sa(dp15
g2
S'chr7'
p16
sg4
I159345973
sa(dp17
g2
S'chrX'
p18
sg4
I156040895
sa(dp19
g2
S'chr8'
p20
sg4
I145138636
sa(dp21
g2
S'chr9'
p22
sg4
I138394717
sa(dp23
g2
S'chr11'
p24
sg4
I135086622
sa(dp25
g2
S'chr10'
p26
sg4
I133797422
sa(dp27
g2
S'chr12'
p28
sg4
I133275309
sa(dp29
g2
S'chr13'
p30
sg4
I114364328
sa(dp31
g2
S'chr14'
p32
sg4
I107043718
sa(dp33
g2
S'chr15'
p34
sg4
I101991189
sa(dp35
g2
S'chr16'
p36
sg4
I90338345
sa(dp37
g2
S'chr17'
p38
sg4
I83257441
sa(dp39
g2
S'chr18'
p40
sg4
I80373285
sa(dp41
g2
S'chr20'
p42
sg4
I64444167
sa(dp43
g2
S'chr19'
p44
sg4
I58617616
sa(dp45
g2
S'chrY'
p46
sg4
I57227415
sa(dp47
g2
S'chr22'
p48
sg4
I50818468
sa(dp49
g2
S'chr21'
p50
sg4
I46709983
sa(dp51
g2
S'chr15_KI270905v1_alt'
p52
sg4
I5161414
sa(dp53
g2
S'chr6_GL000256v2_alt'
p54
sg4
I4929269
sa(dp55
g2
S'chr6_GL000254v2_alt'
p56
sg4
I4827813
sa(dp57
g2
S'chr6_GL000251v2_alt'
p58
sg4
I4795265
sa(dp59
g2
S'chr6_GL000253v2_alt'
p60
sg4
I4677643
sa(dp61
g2
S'chr6_GL000250v2_alt'
p62
sg4
I4672374
sa(dp63
g2
S'chr6_GL000255v2_alt'
p64
sg4
I4606388
sa(dp65
g2
S'chr6_GL000252v2_alt'
p66
sg4
I4604811
sa(dp67
g2
S'chr17_KI270857v1_alt'
p68
sg4
I2877074
sa(dp69
g2
S'chr16_KI270853v1_alt'
p70
sg4
I2659700
sa(dp71
g2
S'chr16_KI270728v1_random'
p72
sg4
I1872759
sa(dp73
g2
S'chr17_GL000258v2_alt'
p74
sg4
I1821992
sa(dp75
g2
S'chr5_GL339449v2_alt'
p76
sg4
I1612928
sa(dp77
g2
S'chr14_KI270847v1_alt'
p78
sg4
I1511111
sa(dp79
g2
S'chr17_KI270908v1_alt'
p80
sg4
I1423190
sa(dp81
g2
S'chr14_KI270846v1_alt'
p82
sg4
I1351393
sa(dp83
g2
S'chr5_KI270897v1_alt'
p84
sg4
I1144418
sa(dp85
g2
S'chr7_KI270803v1_alt'
p86
sg4
I1111570
sa(dp87
g2
S'chr19_GL949749v2_alt'
p88
sg4
I1091841
sa(dp89
g2
S'chr19_KI270938v1_alt'
p90
sg4
I1066800
sa(dp91
g2
S'chr19_GL949750v2_alt'
p92
sg4
I1066390
sa(dp93
g2
S'chr19_GL949748v2_alt'
p94
sg4
I1064304
sa(dp95
g2
S'chr19_GL949751v2_alt'
p96
sg4
I1002683
sa(dp97
g2
S'chr19_GL949746v1_alt'
p98
sg4
I987716
sa(dp99
g2
S'chr19_GL949752v1_alt'
p100
sg4
I987100
sa(dp101
g2
S'chr8_KI270821v1_alt'
p102
sg4
I985506
sa(dp103
g2
S'chr1_KI270763v1_alt'
p104
sg4
I911658
sa(dp105
g2
S'chr6_KI270801v1_alt'
p106
sg4
I870480
sa(dp107
g2
S'chr19_GL949753v2_alt'
p108
sg4
I796479
sa(dp109
g2
S'chr19_GL949747v2_alt'
p110
sg4
I729520
sa(dp111
g2
S'chr8_KI270822v1_alt'
p112
sg4
I624492
sa(dp113
g2
S'chr4_GL000257v2_alt'
p114
sg4
I586476
sa(dp115
g2
S'chr12_KI270904v1_alt'
p116
sg4
I572349
sa(dp117
g2
S'chr4_KI270925v1_alt'
p118
sg4
I555799
sa(dp119
g2
S'chr15_KI270852v1_alt'
p120
sg4
I478999
sa(dp121
g2
S'chr15_KI270727v1_random'
p122
sg4
I448248
sa(dp123
g2
S'chr9_KI270823v1_alt'
p124
sg4
I439082
sa(dp125
g2
S'chr15_KI270850v1_alt'
p126
sg4
I430880
sa(dp127
g2
S'chr1_KI270759v1_alt'
p128
sg4
I425601
sa(dp129
g2
S'chr12_GL877876v1_alt'
p130
sg4
I408271
sa(dp131
g2
S'chrUn_KI270442v1'
p132
sg4
I392061
sa(dp133
g2
S'chr17_KI270862v1_alt'
p134
sg4
I391357
sa(dp135
g2
S'chr15_GL383555v2_alt'
p136
sg4
I388773
sa(dp137
g2
S'chr19_GL383573v1_alt'
p138
sg4
I385657
sa(dp139
g2
S'chr4_KI270896v1_alt'
p140
sg4
I378547
sa(dp141
g2
S'chr4_GL383528v1_alt'
p142
sg4
I376187
sa(dp143
g2
S'chr17_GL383563v3_alt'
p144
sg4
I375691
sa(dp145
g2
S'chr8_KI270810v1_alt'
p146
sg4
I374415
sa(dp147
g2
S'chr1_GL383520v2_alt'
p148
sg4
I366580
sa(dp149
g2
S'chr1_KI270762v1_alt'
p150
sg4
I354444
sa(dp151
g2
S'chr15_KI270848v1_alt'
p152
sg4
I327382
sa(dp153
g2
S'chr17_KI270909v1_alt'
p154
sg4
I325800
sa(dp155
g2
S'chr14_KI270844v1_alt'
p156
sg4
I322166
sa(dp157
g2
S'chr8_KI270900v1_alt'
p158
sg4
I318687
sa(dp159
g2
S'chr10_GL383546v1_alt'
p160
sg4
I309802
sa(dp161
g2
S'chr13_KI270838v1_alt'
p162
sg4
I306913
sa(dp163
g2
S'chr8_KI270816v1_alt'
p164
sg4
I305841
sa(dp165
g2
S'chr22_KI270879v1_alt'
p166
sg4
I304135
sa(dp167
g2
S'chr8_KI270813v1_alt'
p168
sg4
I300230
sa(dp169
g2
S'chr11_KI270831v1_alt'
p170
sg4
I296895
sa(dp171
g2
S'chr15_GL383554v1_alt'
p172
sg4
I296527
sa(dp173
g2
S'chr8_KI270811v1_alt'
p174
sg4
I292436
sa(dp175
g2
S'chr18_GL383567v1_alt'
p176
sg4
I289831
sa(dp177
g2
S'chrX_KI270880v1_alt'
p178
sg4
I284869
sa(dp179
g2
S'chr8_KI270812v1_alt'
p180
sg4
I282736
sa(dp181
g2
S'chr19_KI270921v1_alt'
p182
sg4
I282224
sa(dp183
g2
S'chr17_KI270729v1_random'
p184
sg4
I280839
sa(dp185
g2
S'chr17_JH159146v1_alt'
p186
sg4
I278131
sa(dp187
g2
S'chrX_KI270913v1_alt'
p188
sg4
I274009
sa(dp189
g2
S'chr6_KI270798v1_alt'
p190
sg4
I271782
sa(dp191
g2
S'chr7_KI270808v1_alt'
p192
sg4
I271455
sa(dp193
g2
S'chr22_KI270876v1_alt'
p194
sg4
I263666
sa(dp195
g2
S'chr15_KI270851v1_alt'
p196
sg4
I263054
sa(dp197
g2
S'chr22_KI270875v1_alt'
p198
sg4
I259914
sa(dp199
g2
S'chr1_KI270766v1_alt'
p200
sg4
I256271
sa(dp201
g2
S'chr19_KI270882v1_alt'
p202
sg4
I248807
sa(dp203
g2
S'chr3_KI270778v1_alt'
p204
sg4
I248252
sa(dp205
g2
S'chr15_KI270849v1_alt'
p206
sg4
I244917
sa(dp207
g2
S'chr4_KI270786v1_alt'
p208
sg4
I244096
sa(dp209
g2
S'chr12_KI270835v1_alt'
p210
sg4
I238139
sa(dp211
g2
S'chr17_KI270858v1_alt'
p212
sg4
I235827
sa(dp213
g2
S'chr19_KI270867v1_alt'
p214
sg4
I233762
sa(dp215
g2
S'chr16_KI270855v1_alt'
p216
sg4
I232857
sa(dp217
g2
S'chr8_KI270926v1_alt'
p218
sg4
I229282
sa(dp219
g2
S'chr5_GL949742v1_alt'
p220
sg4
I226852
sa(dp221
g2
S'chr3_KI270780v1_alt'
p222
sg4
I224108
sa(dp223
g2
S'chr17_GL383565v1_alt'
p224
sg4
I223995
sa(dp225
g2
S'chr2_KI270774v1_alt'
p226
sg4
I223625
sa(dp227
g2
S'chr4_KI270790v1_alt'
p228
sg4
I220246
sa(dp229
g2
S'chr11_KI270927v1_alt'
p230
sg4
I218612
sa(dp231
g2
S'chr19_KI270932v1_alt'
p232
sg4
I215732
sa(dp233
g2
S'chr11_KI270903v1_alt'
p234
sg4
I214625
sa(dp235
g2
S'chr2_KI270894v1_alt'
p236
sg4
I214158
sa(dp237
g2
S'chr14_GL000225v1_random'
p238
sg4
I211173
sa(dp239
g2
S'chrUn_KI270743v1'
p240
sg4
I210658
sa(dp241
g2
S'chr11_KI270832v1_alt'
p242
sg4
I210133
sa(dp243
g2
S'chr7_KI270805v1_alt'
p244
sg4
I209988
sa(dp245
g2
S'chr4_GL000008v2_random'
p246
sg4
I209709
sa(dp247
g2
S'chr7_KI270809v1_alt'
p248
sg4
I209586
sa(dp249
g2
S'chr19_KI270887v1_alt'
p250
sg4
I209512
sa(dp251
g2
S'chr4_KI270789v1_alt'
p252
sg4
I205944
sa(dp253
g2
S'chr3_KI270779v1_alt'
p254
sg4
I205312
sa(dp255
g2
S'chr19_KI270914v1_alt'
p256
sg4
I205194
sa(dp257
g2
S'chr19_KI270886v1_alt'
p258
sg4
I204239
sa(dp259
g2
S'chr11_KI270829v1_alt'
p260
sg4
I204059
sa(dp261
g2
S'chr14_GL000009v2_random'
p262
sg4
I201709
sa(dp263
g2
S'chr21_GL383579v2_alt'
p264
sg4
I201197
sa(dp265
g2
S'chr11_JH159136v1_alt'
p266
sg4
I200998
sa(dp267
g2
S'chr19_KI270930v1_alt'
p268
sg4
I200773
sa(dp269
g2
S'chrUn_KI270747v1'
p270
sg4
I198735
sa(dp271
g2
S'chr18_GL383571v1_alt'
p272
sg4
I198278
sa(dp273
g2
S'chr19_KI270920v1_alt'
p274
sg4
I198005
sa(dp275
g2
S'chr6_KI270797v1_alt'
p276
sg4
I197536
sa(dp277
g2
S'chr3_KI270935v1_alt'
p278
sg4
I197351
sa(dp279
g2
S'chr17_KI270861v1_alt'
p280
sg4
I196688
sa(dp281
g2
S'chr15_KI270906v1_alt'
p282
sg4
I196384
sa(dp283
g2
S'chr5_KI270791v1_alt'
p284
sg4
I195710
sa(dp285
g2
S'chr14_KI270722v1_random'
p286
sg4
I194050
sa(dp287
g2
S'chr16_GL383556v1_alt'
p288
sg4
I192462
sa(dp289
g2
S'chr13_KI270840v1_alt'
p290
sg4
I191684
sa(dp291
g2
S'chr14_GL000194v1_random'
p292
sg4
I191469
sa(dp293
g2
S'chr11_JH159137v1_alt'
p294
sg4
I191409
sa(dp295
g2
S'chr19_KI270917v1_alt'
p296
sg4
I190932
sa(dp297
g2
S'chr7_KI270899v1_alt'
p298
sg4
I190869
sa(dp299
g2
S'chr19_KI270923v1_alt'
p300
sg4
I189352
sa(dp301
g2
S'chr10_KI270825v1_alt'
p302
sg4
I188315
sa(dp303
g2
S'chr19_GL383576v1_alt'
p304
sg4
I188024
sa(dp305
g2
S'chr19_KI270922v1_alt'
p306
sg4
I187935
sa(dp307
g2
S'chrUn_KI270742v1'
p308
sg4
I186739
sa(dp309
g2
S'chr22_KI270878v1_alt'
p310
sg4
I186262
sa(dp311
g2
S'chr19_KI270929v1_alt'
p312
sg4
I186203
sa(dp313
g2
S'chr11_KI270826v1_alt'
p314
sg4
I186169
sa(dp315
g2
S'chr6_KB021644v2_alt'
p316
sg4
I185823
sa(dp317
g2
S'chr17_GL000205v2_random'
p318
sg4
I185591
sa(dp319
g2
S'chr1_KI270765v1_alt'
p320
sg4
I185285
sa(dp321
g2
S'chr19_KI270916v1_alt'
p322
sg4
I184516
sa(dp323
g2
S'chr19_KI270890v1_alt'
p324
sg4
I184499
sa(dp325
g2
S'chr3_KI270784v1_alt'
p326
sg4
I184404
sa(dp327
g2
S'chr12_GL383551v1_alt'
p328
sg4
I184319
sa(dp329
g2
S'chr20_KI270870v1_alt'
p330
sg4
I183433
sa(dp331
g2
S'chrUn_GL000195v1'
p332
sg4
I182896
sa(dp333
g2
S'chr1_GL383518v1_alt'
p334
sg4
I182439
sa(dp335
g2
S'chr22_KI270736v1_random'
p336
sg4
I181920
sa(dp337
g2
S'chr10_KI270824v1_alt'
p338
sg4
I181496
sa(dp339
g2
S'chr14_KI270845v1_alt'
p340
sg4
I180703
sa(dp341
g2
S'chr3_GL383526v1_alt'
p342
sg4
I180671
sa(dp343
g2
S'chr13_KI270839v1_alt'
p344
sg4
I180306
sa(dp345
g2
S'chr22_KI270733v1_random'
p346
sg4
I179772
sa(dp347
g2
S'chrUn_GL000224v1'
p348
sg4
I179693
sa(dp349
g2
S'chr10_GL383545v1_alt'
p350
sg4
I179254
sa(dp351
g2
S'chrUn_GL000219v1'
p352
sg4
I179198
sa(dp353
g2
S'chr5_KI270792v1_alt'
p354
sg4
I179043
sa(dp355
g2
S'chr17_KI270860v1_alt'
p356
sg4
I178921
sa(dp357
g2
S'chr19_GL000209v2_alt'
p358
sg4
I177381
sa(dp359
g2
S'chr11_KI270830v1_alt'
p360
sg4
I177092
sa(dp361
g2
S'chr9_KI270719v1_random'
p362
sg4
I176845
sa(dp363
g2
S'chrUn_GL000216v2'
p364
sg4
I176608
sa(dp365
g2
S'chr22_KI270928v1_alt'
p366
sg4
I176103
sa(dp367
g2
S'chr1_KI270712v1_random'
p368
sg4
I176043
sa(dp369
g2
S'chr6_KI270800v1_alt'
p370
sg4
I175808
sa(dp371
g2
S'chr1_KI270706v1_random'
p372
sg4
I175055
sa(dp373
g2
S'chr2_KI270776v1_alt'
p374
sg4
I174166
sa(dp375
g2
S'chr18_KI270912v1_alt'
p376
sg4
I174061
sa(dp377
g2
S'chr3_KI270777v1_alt'
p378
sg4
I173649
sa(dp379
g2
S'chr5_GL383531v1_alt'
p380
sg4
I173459
sa(dp381
g2
S'chr3_JH636055v2_alt'
p382
sg4
I173151
sa(dp383
g2
S'chr14_KI270725v1_random'
p384
sg4
I172810
sa(dp385
g2
S'chr5_KI270796v1_alt'
p386
sg4
I172708
sa(dp387
g2
S'chr9_GL383541v1_alt'
p388
sg4
I171286
sa(dp389
g2
S'chr19_KI270885v1_alt'
p390
sg4
I171027
sa(dp391
g2
S'chr19_KI270919v1_alt'
p392
sg4
I170701
sa(dp393
g2
S'chr19_KI270889v1_alt'
p394
sg4
I170698
sa(dp395
g2
S'chr19_KI270891v1_alt'
p396
sg4
I170680
sa(dp397
g2
S'chr19_KI270915v1_alt'
p398
sg4
I170665
sa(dp399
g2
S'chr19_KI270933v1_alt'
p400
sg4
I170537
sa(dp401
g2
S'chr19_KI270883v1_alt'
p402
sg4
I170399
sa(dp403
g2
S'chr19_GL383575v2_alt'
p404
sg4
I170222
sa(dp405
g2
S'chr19_KI270931v1_alt'
p406
sg4
I170148
sa(dp407
g2
S'chr12_GL383550v2_alt'
p408
sg4
I169178
sa(dp409
g2
S'chr13_KI270841v1_alt'
p410
sg4
I169134
sa(dp411
g2
S'chrUn_KI270744v1'
p412
sg4
I168472
sa(dp413
g2
S'chr18_KI270863v1_alt'
p414
sg4
I167999
sa(dp415
g2
S'chr18_GL383569v1_alt'
p416
sg4
I167950
sa(dp417
g2
S'chr12_GL877875v1_alt'
p418
sg4
I167313
sa(dp419
g2
S'chr21_KI270874v1_alt'
p420
sg4
I166743
sa(dp421
g2
S'chr3_KI270924v1_alt'
p422
sg4
I166540
sa(dp423
g2
S'chr1_KI270761v1_alt'
p424
sg4
I165834
sa(dp425
g2
S'chr3_KI270937v1_alt'
p426
sg4
I165607
sa(dp427
g2
S'chr22_KI270734v1_random'
p428
sg4
I165050
sa(dp429
g2
S'chr18_GL383570v1_alt'
p430
sg4
I164789
sa(dp431
g2
S'chr5_KI270794v1_alt'
p432
sg4
I164558
sa(dp433
g2
S'chr4_GL383527v1_alt'
p434
sg4
I164536
sa(dp435
g2
S'chrUn_GL000213v1'
p436
sg4
I164239
sa(dp437
g2
S'chr3_KI270936v1_alt'
p438
sg4
I164170
sa(dp439
g2
S'chr3_KI270934v1_alt'
p440
sg4
I163458
sa(dp441
g2
S'chr9_GL383539v1_alt'
p442
sg4
I162988
sa(dp443
g2
S'chr3_KI270895v1_alt'
p444
sg4
I162896
sa(dp445
g2
S'chr22_GL383582v2_alt'
p446
sg4
I162811
sa(dp447
g2
S'chr3_KI270782v1_alt'
p448
sg4
I162429
sa(dp449
g2
S'chr1_KI270892v1_alt'
p450
sg4
I162212
sa(dp451
g2
S'chrUn_GL000220v1'
p452
sg4
I161802
sa(dp453
g2
S'chr2_KI270767v1_alt'
p454
sg4
I161578
sa(dp455
g2
S'chr2_KI270715v1_random'
p456
sg4
I161471
sa(dp457
g2
S'chr2_KI270893v1_alt'
p458
sg4
I161218
sa(dp459
g2
S'chrUn_GL000218v1'
p460
sg4
I161147
sa(dp461
g2
S'chr18_GL383572v1_alt'
p462
sg4
I159547
sa(dp463
g2
S'chr8_KI270817v1_alt'
p464
sg4
I158983
sa(dp465
g2
S'chr4_KI270788v1_alt'
p466
sg4
I158965
sa(dp467
g2
S'chrUn_KI270749v1'
p468
sg4
I158759
sa(dp469
g2
S'chr7_KI270806v1_alt'
p470
sg4
I158166
sa(dp471
g2
S'chr7_KI270804v1_alt'
p472
sg4
I157952
sa(dp473
g2
S'chr18_KI270911v1_alt'
p474
sg4
I157710
sa(dp475
g2
S'chrUn_KI270741v1'
p476
sg4
I157432
sa(dp477
g2
S'chr17_KI270910v1_alt'
p478
sg4
I157099
sa(dp479
g2
S'chr19_KI270884v1_alt'
p480
sg4
I157053
sa(dp481
g2
S'chr19_GL383574v1_alt'
p482
sg4
I155864
sa(dp483
g2
S'chr19_KI270888v1_alt'
p484
sg4
I155532
sa(dp485
g2
S'chr3_GL000221v1_random'
p486
sg4
I155397
sa(dp487
g2
S'chr11_GL383547v1_alt'
p488
sg4
I154407
sa(dp489
g2
S'chr2_KI270716v1_random'
p490
sg4
I153799
sa(dp491
g2
S'chr12_GL383553v2_alt'
p492
sg4
I152874
sa(dp493
g2
S'chr6_KI270799v1_alt'
p494
sg4
I152148
sa(dp495
g2
S'chr22_KI270731v1_random'
p496
sg4
I150754
sa(dp497
g2
S'chrUn_KI270751v1'
p498
sg4
I150742
sa(dp499
g2
S'chrUn_KI270750v1'
p500
sg4
I148850
sa(dp501
g2
S'chr8_KI270818v1_alt'
p502
sg4
I145606
sa(dp503
g2
S'chrX_KI270881v1_alt'
p504
sg4
I144206
sa(dp505
g2
S'chr21_KI270873v1_alt'
p506
sg4
I143900
sa(dp507
g2
S'chr2_GL383521v1_alt'
p508
sg4
I143390
sa(dp509
g2
S'chr8_KI270814v1_alt'
p510
sg4
I141812
sa(dp511
g2
S'chr12_GL383552v1_alt'
p512
sg4
I138655
sa(dp513
g2
S'chrUn_KI270519v1'
p514
sg4
I138126
sa(dp515
g2
S'chr2_KI270775v1_alt'
p516
sg4
I138019
sa(dp517
g2
S'chr17_KI270907v1_alt'
p518
sg4
I137721
sa(dp519
g2
S'chrUn_GL000214v1'
p520
sg4
I137718
sa(dp521
g2
S'chr8_KI270901v1_alt'
p522
sg4
I136959
sa(dp523
g2
S'chr2_KI270770v1_alt'
p524
sg4
I136240
sa(dp525
g2
S'chr16_KI270854v1_alt'
p526
sg4
I134193
sa(dp527
g2
S'chr8_KI270819v1_alt'
p528
sg4
I133535
sa(dp529
g2
S'chr17_GL383564v2_alt'
p530
sg4
I133151
sa(dp531
g2
S'chr2_KI270772v1_alt'
p532
sg4
I133041
sa(dp533
g2
S'chr8_KI270815v1_alt'
p534
sg4
I132244
sa(dp535
g2
S'chr5_KI270795v1_alt'
p536
sg4
I131892
sa(dp537
g2
S'chr5_KI270898v1_alt'
p538
sg4
I130957
sa(dp539
g2
S'chr20_GL383577v2_alt'
p540
sg4
I128386
sa(dp541
g2
S'chr1_KI270708v1_random'
p542
sg4
I127682
sa(dp543
g2
S'chr7_KI270807v1_alt'
p544
sg4
I126434
sa(dp545
g2
S'chr5_KI270793v1_alt'
p546
sg4
I126136
sa(dp547
g2
S'chr6_GL383533v1_alt'
p548
sg4
I124736
sa(dp549
g2
S'chr2_GL383522v1_alt'
p550
sg4
I123821
sa(dp551
g2
S'chr19_KI270918v1_alt'
p552
sg4
I123111
sa(dp553
g2
S'chr12_GL383549v1_alt'
p554
sg4
I120804
sa(dp555
g2
S'chr2_KI270769v1_alt'
p556
sg4
I120616
sa(dp557
g2
S'chr4_KI270785v1_alt'
p558
sg4
I119912
sa(dp559
g2
S'chr12_KI270834v1_alt'
p560
sg4
I119498
sa(dp561
g2
S'chr7_GL383534v2_alt'
p562
sg4
I119183
sa(dp563
g2
S'chr20_KI270869v1_alt'
p564
sg4
I118774
sa(dp565
g2
S'chr21_GL383581v2_alt'
p566
sg4
I116689
sa(dp567
g2
S'chr3_KI270781v1_alt'
p568
sg4
I113034
sa(dp569
g2
S'chr17_KI270730v1_random'
p570
sg4
I112551
sa(dp571
g2
S'chrUn_KI270438v1'
p572
sg4
I112505
sa(dp573
g2
S'chr4_KI270787v1_alt'
p574
sg4
I111943
sa(dp575
g2
S'chr18_KI270864v1_alt'
p576
sg4
I111737
sa(dp577
g2
S'chr2_KI270771v1_alt'
p578
sg4
I110395
sa(dp579
g2
S'chr1_GL383519v1_alt'
p580
sg4
I110268
sa(dp581
g2
S'chr2_KI270768v1_alt'
p582
sg4
I110099
sa(dp583
g2
S'chr1_KI270760v1_alt'
p584
sg4
I109528
sa(dp585
g2
S'chr3_KI270783v1_alt'
p586
sg4
I109187
sa(dp587
g2
S'chr17_KI270859v1_alt'
p588
sg4
I108763
sa(dp589
g2
S'chr11_KI270902v1_alt'
p590
sg4
I106711
sa(dp591
g2
S'chr18_GL383568v1_alt'
p592
sg4
I104552
sa(dp593
g2
S'chr22_KI270737v1_random'
p594
sg4
I103838
sa(dp595
g2
S'chr13_KI270843v1_alt'
p596
sg4
I103832
sa(dp597
g2
S'chr22_KI270877v1_alt'
p598
sg4
I101331
sa(dp599
g2
S'chr5_GL383530v1_alt'
p600
sg4
I101241
sa(dp601
g2
S'chr11_KI270721v1_random'
p602
sg4
I100316
sa(dp603
g2
S'chr22_KI270738v1_random'
p604
sg4
I99375
sa(dp605
g2
S'chr22_GL383583v2_alt'
p606
sg4
I96924
sa(dp607
g2
S'chr2_GL582966v2_alt'
p608
sg4
I96131
sa(dp609
g2
S'chrUn_KI270748v1'
p610
sg4
I93321
sa(dp611
g2
S'chrUn_KI270435v1'
p612
sg4
I92983
sa(dp613
g2
S'chr5_GL000208v1_random'
p614
sg4
I92689
sa(dp615
g2
S'chrUn_KI270538v1'
p616
sg4
I91309
sa(dp617
g2
S'chr17_GL383566v1_alt'
p618
sg4
I90219
sa(dp619
g2
S'chr16_GL383557v1_alt'
p620
sg4
I89672
sa(dp621
g2
S'chr17_JH159148v1_alt'
p622
sg4
I88070
sa(dp623
g2
S'chr5_GL383532v1_alt'
p624
sg4
I82728
sa(dp625
g2
S'chr21_KI270872v1_alt'
p626
sg4
I82692
sa(dp627
g2
S'chrUn_KI270756v1'
p628
sg4
I79590
sa(dp629
g2
S'chr6_KI270758v1_alt'
p630
sg4
I76752
sa(dp631
g2
S'chr12_KI270833v1_alt'
p632
sg4
I76061
sa(dp633
g2
S'chr6_KI270802v1_alt'
p634
sg4
I75005
sa(dp635
g2
S'chr21_GL383580v2_alt'
p636
sg4
I74653
sa(dp637
g2
S'chr22_KB663609v1_alt'
p638
sg4
I74013
sa(dp639
g2
S'chr22_KI270739v1_random'
p640
sg4
I73985
sa(dp641
g2
S'chr9_GL383540v1_alt'
p642
sg4
I71551
sa(dp643
g2
S'chrUn_KI270757v1'
p644
sg4
I71251
sa(dp645
g2
S'chr2_KI270773v1_alt'
p646
sg4
I70887
sa(dp647
g2
S'chr17_JH159147v1_alt'
p648
sg4
I70345
sa(dp649
g2
S'chr11_KI270827v1_alt'
p650
sg4
I67707
sa(dp651
g2
S'chr1_KI270709v1_random'
p652
sg4
I66860
sa(dp653
g2
S'chrUn_KI270746v1'
p654
sg4
I66486
sa(dp655
g2
S'chr16_KI270856v1_alt'
p656
sg4
I63982
sa(dp657
g2
S'chr21_GL383578v2_alt'
p658
sg4
I63917
sa(dp659
g2
S'chrUn_KI270753v1'
p660
sg4
I62944
sa(dp661
g2
S'chr19_KI270868v1_alt'
p662
sg4
I61734
sa(dp663
g2
S'chr9_GL383542v1_alt'
p664
sg4
I60032
sa(dp665
g2
S'chr20_KI270871v1_alt'
p666
sg4
I58661
sa(dp667
g2
S'chr12_KI270836v1_alt'
p668
sg4
I56134
sa(dp669
g2
S'chr19_KI270865v1_alt'
p670
sg4
I52969
sa(dp671
g2
S'chr1_KI270764v1_alt'
p672
sg4
I50258
sa(dp673
g2
S'chrUn_KI270589v1'
p674
sg4
I44474
sa(dp675
g2
S'chr14_KI270726v1_random'
p676
sg4
I43739
sa(dp677
g2
S'chr19_KI270866v1_alt'
p678
sg4
I43156
sa(dp679
g2
S'chr22_KI270735v1_random'
p680
sg4
I42811
sa(dp681
g2
S'chr1_KI270711v1_random'
p682
sg4
I42210
sa(dp683
g2
S'chrUn_KI270745v1'
p684
sg4
I41891
sa(dp685
g2
S'chr1_KI270714v1_random'
p686
sg4
I41717
sa(dp687
g2
S'chr22_KI270732v1_random'
p688
sg4
I41543
sa(dp689
g2
S'chr1_KI270713v1_random'
p690
sg4
I40745
sa(dp691
g2
S'chrUn_KI270754v1'
p692
sg4
I40191
sa(dp693
g2
S'chr1_KI270710v1_random'
p694
sg4
I40176
sa(dp695
g2
S'chr12_KI270837v1_alt'
p696
sg4
I40090
sa(dp697
g2
S'chr9_KI270717v1_random'
p698
sg4
I40062
sa(dp699
g2
S'chr14_KI270724v1_random'
p700
sg4
I39555
sa(dp701
g2
S'chr9_KI270720v1_random'
p702
sg4
I39050
sa(dp703
g2
S'chr14_KI270723v1_random'
p704
sg4
I38115
sa(dp705
g2
S'chr9_KI270718v1_random'
p706
sg4
I38054
sa(dp707
g2
S'chrUn_KI270317v1'
p708
sg4
I37690
sa(dp709
g2
S'chr13_KI270842v1_alt'
p710
sg4
I37287
sa(dp711
g2
S'chrY_KI270740v1_random'
p712
sg4
I37240
sa(dp713
g2
S'chrUn_KI270755v1'
p714
sg4
I36723
sa(dp715
g2
S'chr8_KI270820v1_alt'
p716
sg4
I36640
sa(dp717
g2
S'chr1_KI270707v1_random'
p718
sg4
I32032
sa(dp719
g2
S'chrUn_KI270579v1'
p720
sg4
I31033
sa(dp721
g2
S'chrUn_KI270752v1'
p722
sg4
I27745
sa(dp723
g2
S'chrUn_KI270512v1'
p724
sg4
I22689
sa(dp725
g2
S'chrUn_KI270322v1'
p726
sg4
I21476
sa(dp727
g2
S'chrM'
p728
sg4
I16569
sa(dp729
g2
S'chrUn_GL000226v1'
p730
sg4
I15008
sa(dp731
g2
S'chrUn_KI270311v1'
p732
sg4
I12399
sa(dp733
g2
S'chrUn_KI270366v1'
p734
sg4
I8320
sa(dp735
g2
S'chrUn_KI270511v1'
p736
sg4
I8127
sa(dp737
g2
S'chrUn_KI270448v1'
p738
sg4
I7992
sa(dp739
g2
S'chrUn_KI270521v1'
p740
sg4
I7642
sa(dp741
g2
S'chrUn_KI270581v1'
p742
sg4
I7046
sa(dp743
g2
S'chrUn_KI270582v1'
p744
sg4
I6504
sa(dp745
g2
S'chrUn_KI270515v1'
p746
sg4
I6361
sa(dp747
g2
S'chrUn_KI270588v1'
p748
sg4
I6158
sa(dp749
g2
S'chrUn_KI270591v1'
p750
sg4
I5796
sa(dp751
g2
S'chrUn_KI270522v1'
p752
sg4
I5674
sa(dp753
g2
S'chrUn_KI270507v1'
p754
sg4
I5353
sa(dp755
g2
S'chrUn_KI270590v1'
p756
sg4
I4685
sa(dp757
g2
S'chrUn_KI270584v1'
p758
sg4
I4513
sa(dp759
g2
S'chrUn_KI270320v1'
p760
sg4
I4416
sa(dp761
g2
S'chrUn_KI270382v1'
p762
sg4
I4215
sa(dp763
g2
S'chrUn_KI270468v1'
p764
sg4
I4055
sa(dp765
g2
S'chrUn_KI270467v1'
p766
sg4
I3920
sa(dp767
g2
S'chrUn_KI270362v1'
p768
sg4
I3530
sa(dp769
g2
S'chrUn_KI270517v1'
p770
sg4
I3253
sa(dp771
g2
S'chrUn_KI270593v1'
p772
sg4
I3041
sa(dp773
g2
S'chrUn_KI270528v1'
p774
sg4
I2983
sa(dp775
g2
S'chrUn_KI270587v1'
p776
sg4
I2969
sa(dp777
g2
S'chrUn_KI270364v1'
p778
sg4
I2855
sa(dp779
g2
S'chrUn_KI270371v1'
p780
sg4
I2805
sa(dp781
g2
S'chrUn_KI270333v1'
p782
sg4
I2699
sa(dp783
g2
S'chrUn_KI270374v1'
p784
sg4
I2656
sa(dp785
g2
S'chrUn_KI270411v1'
p786
sg4
I2646
sa(dp787
g2
S'chrUn_KI270414v1'
p788
sg4
I2489
sa(dp789
g2
S'chrUn_KI270510v1'
p790
sg4
I2415
sa(dp791
g2
S'chrUn_KI270390v1'
p792
sg4
I2387
sa(dp793
g2
S'chrUn_KI270375v1'
p794
sg4
I2378
sa(dp795
g2
S'chrUn_KI270420v1'
p796
sg4
I2321
sa(dp797
g2
S'chrUn_KI270509v1'
p798
sg4
I2318
sa(dp799
g2
S'chrUn_KI270315v1'
p800
sg4
I2276
sa(dp801
g2
S'chrUn_KI270302v1'
p802
sg4
I2274
sa(dp803
g2
S'chrUn_KI270518v1'
p804
sg4
I2186
sa(dp805
g2
S'chrUn_KI270530v1'
p806
sg4
I2168
sa(dp807
g2
S'chrUn_KI270304v1'
p808
sg4
I2165
sa(dp809
g2
S'chrUn_KI270418v1'
p810
sg4
I2145
sa(dp811
g2
S'chrUn_KI270424v1'
p812
sg4
I2140
sa(dp813
g2
S'chrUn_KI270417v1'
p814
sg4
I2043
sa(dp815
g2
S'chrUn_KI270508v1'
p816
sg4
I1951
sa(dp817
g2
S'chrUn_KI270303v1'
p818
sg4
I1942
sa(dp819
g2
S'chrUn_KI270381v1'
p820
sg4
I1930
sa(dp821
g2
S'chrUn_KI270529v1'
p822
sg4
I1899
sa(dp823
g2
S'chrUn_KI270425v1'
p824
sg4
I1884
sa(dp825
g2
S'chrUn_KI270396v1'
p826
sg4
I1880
sa(dp827
g2
S'chrUn_KI270363v1'
p828
sg4
I1803
sa(dp829
g2
S'chrUn_KI270386v1'
p830
sg4
I1788
sa(dp831
g2
S'chrUn_KI270465v1'
p832
sg4
I1774
sa(dp833
g2
S'chrUn_KI270383v1'
p834
sg4
I1750
sa(dp835
g2
S'chrUn_KI270384v1'
p836
sg4
I1658
sa(dp837
g2
S'chrUn_KI270330v1'
p838
sg4
I1652
sa(dp839
g2
S'chrUn_KI270372v1'
p840
sg4
I1650
sa(dp841
g2
S'chrUn_KI270548v1'
p842
sg4
I1599
sa(dp843
g2
S'chrUn_KI270580v1'
p844
sg4
I1553
sa(dp845
g2
S'chrUn_KI270387v1'
p846
sg4
I1537
sa(dp847
g2
S'chrUn_KI270391v1'
p848
sg4
I1484
sa(dp849
g2
S'chrUn_KI270305v1'
p850
sg4
I1472
sa(dp851
g2
S'chrUn_KI270373v1'
p852
sg4
I1451
sa(dp853
g2
S'chrUn_KI270422v1'
p854
sg4
I1445
sa(dp855
g2
S'chrUn_KI270316v1'
p856
sg4
I1444
sa(dp857
g2
S'chrUn_KI270338v1'
p858
sg4
I1428
sa(dp859
g2
S'chrUn_KI270340v1'
p860
sg4
I1428
sa(dp861
g2
S'chrUn_KI270583v1'
p862
sg4
I1400
sa(dp863
g2
S'chrUn_KI270334v1'
p864
sg4
I1368
sa(dp865
g2
S'chrUn_KI270429v1'
p866
sg4
I1361
sa(dp867
g2
S'chrUn_KI270393v1'
p868
sg4
I1308
sa(dp869
g2
S'chrUn_KI270516v1'
p870
sg4
I1300
sa(dp871
g2
S'chrUn_KI270389v1'
p872
sg4
I1298
sa(dp873
g2
S'chrUn_KI270466v1'
p874
sg4
I1233
sa(dp875
g2
S'chrUn_KI270388v1'
p876
sg4
I1216
sa(dp877
g2
S'chrUn_KI270544v1'
p878
sg4
I1202
sa(dp879
g2
S'chrUn_KI270310v1'
p880
sg4
I1201
sa(dp881
g2
S'chrUn_KI270412v1'
p882
sg4
I1179
sa(dp883
g2
S'chrUn_KI270395v1'
p884
sg4
I1143
sa(dp885
g2
S'chrUn_KI270376v1'
p886
sg4
I1136
sa(dp887
g2
S'chrUn_KI270337v1'
p888
sg4
I1121
sa(dp889
g2
S'chrUn_KI270335v1'
p890
sg4
I1048
sa(dp891
g2
S'chrUn_KI270378v1'
p892
sg4
I1048
sa(dp893
g2
S'chrUn_KI270379v1'
p894
sg4
I1045
sa(dp895
g2
S'chrUn_KI270329v1'
p896
sg4
I1040
sa(dp897
g2
S'chrUn_KI270419v1'
p898
sg4
I1029
sa(dp899
g2
S'chrUn_KI270336v1'
p900
sg4
I1026
sa(dp901
g2
S'chrUn_KI270312v1'
p902
sg4
I998
sa(dp903
g2
S'chrUn_KI270539v1'
p904
sg4
I993
sa(dp905
g2
S'chrUn_KI270385v1'
p906
sg4
I990
sa(dp907
g2
S'chrUn_KI270423v1'
p908
sg4
I981
sa(dp909
g2
S'chrUn_KI270392v1'
p910
sg4
I971
sa(dp911
g2
S'chrUn_KI270394v1'
p912
sg4
I970
sa.