(lp0
(dp1
VexonEnds
p2
S'183862,187405,'
p3
sVname
p4
S'uc061fvo.1'
p5
sVtxStart
p6
I183754
sVexonCount
p7
I2
sVgname
p8
S'RP13-436F16.1'
p9
sVcdsEnd
p10
I183754
sValignID
p11
S'ENST00000627832.1'
p12
sVstrand
p13
S'+'
p14
sVproteinID
p15
S''
p16
sVcdsStart
p17
I183754
sVchrom
p18
S'chr1_KI270762v1_alt'
p19
sVtxEnd
p20
I187405
sVexonStarts
p21
S'183754,187140,'
p22
sa.